(dp0
S'_tolerant_unk_size'
p1
I0
sS'_keywords'
p2
(lp3
S''
p4
aS'\xe5\x85\xad\xe5\x9b\x9b \xe5\x85\xac\xe9\x96\x8b\xe4\xbf\xa1'
p5
aS'\xe8\x83\xa1\xe6\xb8\xa9\xe6\x9a\xb4\xe6\x94\xbf'
p6
aS'\xe6\x99\xae\xe9\x80\x89'
p7
aS'\xe6\x9d\x8e\xe4\xb8\x96\xe8\xbe\x89'
p8
aS'\xe5\xb9\xbf\xe5\x9c\xba\xe4\xb8\x8a\xe7\x9a\x84\xe9\xb2\x9c\xe8\xa1\x80'
p9
aS'\xe5\xa4\x9a\xe7\xbb\xb4\xe6\x96\xb0\xe9\x97\xbb\xe7\xbd\x91'
p10
aS'\xe5\xa4\xa9\xe5\xae\x89\xe9\x97\xa8 \xe5\xa4\xaa\xe5\xad\x90\xe5\x85\x9a \xe4\xba\x8b\xe4\xbb\xb6'
p11
aS'\xe6\xaf\x9b\xe4\xb8\xbb\xe5\xb8\xad'
p12
aS'\xe7\xa4\xba\xe5\xa8\x81'
p13
aS'\xe9\x82\xa6\xe5\x9b\xbd'
p14
aS'taip'
p15
aS'\xe6\xaf\x9b\xe6\xb3\xbd\xe4\xb8\x9c'
p16
aS'\xe7\xaa\x81\xe5\x8e\xa5\xe9\x9d\xa9\xe5\x91\xbd'
p17
aS'\xe6\xb1\x9f\xe6\xb3\xbd\xe6\xb0\x91\xe7\x97\x85\xe9\x80\x9d'
p18
aS'\xe5\xa9\xb4\xe5\x84\xbf\xe6\xb1\xa4'
p19
aS'\xe9\xa9\xac\xe5\xbf\x97\xe9\xb9\x8f'
p20
aS'\xe9\xa9\xac\xe5\x88\x97\xe5\x85\x9a'
p21
aS'\xe6\x96\xb0\xe5\x94\x90\xe4\xba\xba'
p22
aS'\xe5\x88\x98\xe4\xba\x91\xe5\xb1\xb1'
p23
aS'\xe8\xa5\xbf\xe8\x97\x8f\xe7\x8b\xac\xe7\xab\x8b'
p24
aS'\xe5\xba\x9f\xe9\x99\xa4\xe4\xb8\xad\xe5\x85\xb1'
p25
aS'\xe5\x87\xba\xe5\x94\xae\xe6\x89\x8b\xe6\x9e\xaa'
p26
aS'HACKING'
p27
aS'\xe5\x85\xad\xe5\x9b\x9b \xe5\xad\xa6\xe6\xbd\xae \xe6\xb0\x91\xe8\xbf\x90'
p28
aS'\xe5\xa4\xa9\xe5\xae\x89\xe9\x97\xa8\xe4\xba\x8b\xe4\xbb\xb6'
p29
aS'\xe9\x95\x87\xe5\x8e\x8b\xe5\x9b\xbe\xe7\x89\x87'
p30
aS'\xe9\x80\x9a\xe5\x95\x86\xe5\xae\xbd\xe8\xa1\xa3'
p31
aS'\xe4\xb8\x81\xe7\xa3\x8a'
p32
aS'\xe5\xa4\xa7\xe6\xb3\x95\xe5\xbc\x9f\xe5\xad\x90'
p33
aS'\xe5\x88\x98\xe6\xb7\x87'
p34
aS'freechina'
p35
aS'\xe4\xb9\x9d\xe8\xa9\x95\xe5\x85\xb1\xe7\x94\xa2\xe9\xbb\xa8'
p36
aS'89\xe6\xb0\x91\xe8\xbf\x90 \xe9\x82\x93\xe5\xb0\x8f\xe5\xb9\xb3 \xe9\x95\x87\xe5\x8e\x8b'
p37
aS'\xe7\x8e\x8b\xe5\xbb\xba\xe7\x90\xaa'
p38
aS'\xe6\x9d\x8e\xe9\xb9\x8f'
p39
aS'\xe5\xa4\xa7\xe9\xa2\x84\xe8\xa8\x80'
p40
aS'\xe5\x85\xad\xe5\x9b\x9b\xe7\x83\x9b\xe5\x85\x89\xe9\x9b\x86\xe4\xbc\x9a'
p41
aS'\xe7\x8e\x8b\xe5\x87\xa4\xe5\x8f\x8b'
p42
aS'\xe5\xa4\xa9\xe5\xae\x89\xe9\x97\xa8\xe6\xaf\x8d\xe4\xba\xb2\xe8\xbf\x90\xe5\x8a\xa8'
p43
aS'\xe6\xaf\x9b\xe5\x85\x9a'
p44
aS'\xe6\x96\xb0\xe5\x8f\xb3\xe6\xb4\xbe'
p45
aS'\xe5\x9b\xa2\xe6\xb4\xbe\xe6\x94\xbf\xe6\xb2\xbb\xe6\x98\x8e\xe6\x98\x9f'
p46
aS'\xe8\xb6\x85\xe8\xb6\x8a\xe7\xba\xa2\xe5\xa2\x99'
p47
aS'89\xe5\xad\xa6\xe8\xbf\x90'
p48
aS'\xe7\xb2\xbe\xe5\xad\x90'
p49
aS'\xe5\xbe\x90\xe6\x96\x87\xe5\xba\x93'
p50
aS'\xd8\xac\xdb\x95\xd9\x86\xd9\x86\xdb\x95\xd8\xaa \xd8\xa6\xd8\xa7\xd8\xb4\xd9\x89\xd9\x82'
p51
aS'\xe5\x85\xab\xe4\xb9\x9d\xe5\xad\xa6\xe8\xbf\x90'
p52
aS'GCD'
p53
aS'\xe5\x8d\x81\xe4\xb9\x9d\xe5\xb9\xb4\xe5\x89\x8d'
p54
aS'\xe8\xb5\xb5\xe7\xb4\xab\xe9\x98\xb3 \xe5\x85\xad\xe5\x9b\x9b\xe8\x87\xaa\xe8\xbe\xa9'
p55
aS'\xe4\xba\xba\xe6\xb0\x91\xe7\x9c\x9f\xe5\xae\x9e\xe6\x8a\xa5'
p56
aS'hypermart.net'
p57
aS'\xe5\xa4\xa7\xe7\xba\xaa\xe5\x85\x83'
p58
aS'\xe5\xb9\xb3\xe5\x8f\x8d\xe5\x85\xad\xe5\x9b\x9b'
p59
aS'\xe5\x9c\xb0\xe9\x9c\x87'
p60
aS'\xe9\xa2\x86\xe8\xb7\x91\xe7\xac\xac\xe4\xba\x94\xe4\xbb\xa3'
p61
aS'\xe9\x82\x93\xe4\xb8\x8d\xe7\xbe\xa4'
p62
aS'\xe5\xa4\xa7\xe6\x98\xad\xe5\xaf\xba'
p63
aS'\xe5\xa4\xa9\xe5\xae\x89\xe9\x97\xa8\xe5\xa4\xa7\xe5\xb1\xa0\xe6\x9d\x80'
p64
aS'\xe5\xa4\xa9\xe5\xae\x89\xe9\x97\xa8\xe6\xaf\x8d\xe4\xba\xb2'
p65
aS'\xe5\x85\xab\xe4\xb9\x9d\xe6\x9a\xb4\xe4\xb9\xb1'
p66
aS'\xe4\xbb\x81\xe5\x90\x89\xe6\x97\xba\xe5\xa7\x86'
p67
aS'\xe4\xb8\xad\xe5\x8d\x97\xe6\xb5\xb7\xe6\x96\x97\xe4\xba\x89'
p68
aS'\xe6\xb1\x9f\xe8\x9b\xa4\xe8\x9f\x86'
p69
aS'\xe5\x85\x9a\xe4\xba\xa7\xe5\x85\xb1'
p70
aS'\xe5\x85\xad\xe5\x9b\x9b \xe5\xb1\xa0\xe6\x9d\x80 \xe8\xb5\xb5\xe7\xb4\xab\xe9\x98\xb3'
p71
aS'\xe4\xb8\xad\xe5\x85\xb1\xe4\xbc\xaa\xe6\x94\xbf\xe6\x9d\x83'
p72
aS'\xe9\x83\xad\xe4\xbc\xaf\xe9\x9b\x84'
p73
aS'\xe8\x83\xa1\xe7\xb4\xa7\xe6\x8e\x8f'
p74
aS'\xe8\x83\xa1\xe6\x9b\xbe\xe6\xb1\x9f\xe6\x81\xb6\xe6\x96\x97'
p75
aS'freenet'
p76
aS'\xe5\x88\x98\xe5\xbb\xb6\xe4\xb8\x9c'
p77
aS'KEFU'
p78
aS'\xe5\x9d\xa6\xe5\x85\x8b \xe7\x8e\x8b\xe7\xbb\xb4\xe6\x9e\x97 \xe5\x85\xad\xe5\x9b\x9b'
p79
aS'\xe5\xa4\xa9\xe5\xae\x89\xe9\x97\xa8\xe5\xad\xa6\xe6\xbd\xae'
p80
aS'\xe4\xb9\x9d\xe8\xaf\x84\xe5\x85\xb1\xe4\xba\xa7\xe5\x85\x9a'
p81
aS'\xe8\xbf\xbd\xe6\x9f\xa5\xe5\x9b\xbd\xe9\x99\x85'
p82
aS'\xe9\x9f\xa9\xe6\xad\xa3 \xe5\x8f\x96\xe4\xbb\xa3\xe6\x9d\x8e\xe5\x85\x8b\xe5\xbc\xba'
p83
aS'\xe6\xb8\x85\xe5\x8d\x8e\xe5\xb8\xae'
p84
aS'\xe5\x85\xad\xe5\x9b\x9b \xe5\xad\xa6\xe7\x94\x9f \xe6\xb0\x91\xe4\xb8\xbb\xe8\xbf\x90\xe5\x8a\xa8'
p85
aS'\xe9\xab\x98\xe5\xae\x98\xe5\xad\x90\xe5\xa5\xb3'
p86
aS'\xe6\xa1\x91\xe5\xbe\xb7\xef\xbf\xbd'
p87
aS'\xe5\x9b\xa2\xe6\xb4\xbe'
p88
aS'falundafa'
p89
aS'\xe6\xb5\xb7\xe5\xa4\x96\xe6\xb0\x91\xe8\xbf\x90'
p90
aS'\xe7\xbd\xa2\xe5\xb7\xa5'
p91
aS'\xe4\xb8\x89\xe5\x8c\xba\xe9\x9d\xa9\xe5\x91\xbd'
p92
aS'\xe9\x9b\xaa\xe5\xb1\xb1\xe7\x8b\xae\xe5\xad\x90\xe6\x97\x97'
p93
aS'\xe8\xa1\x80\xe8\x85\xa5\xe6\xb8\x85\xe5\x9c\xba\xe5\x86\x85\xe5\xb9\x95'
p94
aS'\xe6\xa2\xa6\xe5\xb9\xbb\xe8\xa5\xbf\xe6\xb8\xb8\xe7\xa7\x81\xe6\x9c\x8d'
p95
aS'\xe5\xb7\xa6\xe4\xb8\x8d\xe8\xb5\x94'
p96
aS'\xe7\xbf\x92\xe5\x8c\x85\xe5\xad\x90 \xe7\xbf\x92\xe7\x89\xb9\xe5\x8b\x92'
p97
aS'\xe6\xb8\xa9\xe7\x88\xb7\xe7\x88\xb7'
p98
aS'\xd8\xaf\xd9\x89\xd9\x86 \xd8\xa6\xd9\x89\xd8\xb3\xd9\x84\xd8\xa7\xd9\x85 \xd9\x8a\xd9\x88\xd9\x84\xdb\x8b\xd8\xa7\xd8\xb3'
p99
aS'ZHENSHANREN'
p100
aS'hongzhi'
p101
aS'\xe7\xbd\x91\xe7\xae\xa1\xe5\x8a\x9e'
p102
aS'BBC\xe4\xb8\xad\xe6\x96\x87\xe7\xbd\x91'
p103
aS'\xe9\xab\x98\xe5\x8b\xa4\xe8\x8d\xa3'
p104
aS'\xe8\xa5\xbf\xe8\x97\x8f\xe5\xb1\x80\xe5\x8a\xbf'
p105
aS'\xe5\xbd\xad\xe9\xba\xbb\xe9\xba\xbb \xe6\x9a\x97\xe9\xac\xa5\xe5\xae\x8b\xe8\xb2\xb4\xe5\xa6\x83'
p106
aS'\xe9\xa9\xac\xe7\xbb\xa7\xe6\xb7\xb1'
p107
aS'\xe4\xb8\xad\xe5\x85\xb1 \xe8\xa1\x80\xe8\x85\xa5\xe9\x95\x87\xe5\x8e\x8b \xe4\xb8\x93\xe5\x88\xb6'
p108
aS'penis'
p109
aS'\xe8\x80\x81\xe6\xb1\x9f \xe6\xb0\x94\xe6\x9d\x80\xe4\xb9\xa0\xe5\xa4\xa7\xe5\xa4\xa7'
p110
aS'\xe9\xa9\xac\xe5\x85\x8b\xe6\x80\x9d'
p111
aS'\xe6\x96\xb0\xe5\xb7\xa6\xe6\xb4\xbe'
p112
aS'\xe9\x80\x80\xe5\x85\xb1\xe5\x85\x9a'
p113
aS'*\xe6\x96\xb0\xe9\x97\xbb\xe7\xbd\x91'
p114
aS'tai du'
p115
aS'\xe5\xae\x8b\xe7\xa5\x96\xe8\x8b\xb1'
p116
aS'\xe6\x9d\x8e\xe9\x95\xbf\xe6\x98\xa5'
p117
aS'cao'
p118
aS'SB'
p119
aS'64\xe4\xba\x8b\xe4\xbb\xb6'
p120
aS'\xe6\x96\xb0\xe6\x8a\x97\xe8\x81\x94'
p121
aS'08\xe5\xae\xaa\xe7\xab\xa0'
p122
aS'jiaochun'
p123
aS'wisalstudio com'
p124
aS'\xe9\x82\x93\xe7\x9f\xae\xe5\xad\x90'
p125
aS'\xe8\x87\xaa\xe7\x94\xb1\xe8\xa5\xbf\xe8\x97\x8f'
p126
aS'\xe4\xb9\xb0\xe6\x89\x8b\xe6\x9e\xaa'
p127
aS'\xe5\x85\xad\xe5\x9b\x9b \xe4\xb8\xad\xe5\x85\xb1 \xe4\xb8\x93\xe5\x88\xb6'
p128
aS'fuck'
p129
aS'\xe6\x97\xa9\xe6\xb3\x84'
p130
aS'\xe4\xb8\x80\xe5\x85\x9a\xe7\x8b\xac\xe8\xa3\x81'
p131
aS'\xe5\x85\xb1\xe6\xae\x8b\xe5\x85\x9a'
p132
aS'\xe9\x95\x87\xe5\x8e\x8b\xe5\xad\xa6\xe7\x94\x9f \xe6\x88\x92\xe4\xb8\xa5\xe9\x83\xa8\xe9\x98\x9f \xe5\xa4\xa9\xe5\xae\x89\xe9\x97\xa8\xe5\xb9\xbf\xe5\x9c\xba'
p133
aS'8964 \xe5\xb1\xa0\xe6\x9d\x80 \xe7\xba\xaa\xe5\xbf\xb5'
p134
aS'Crestbone'
p135
aS'\xe5\xa4\xa9\xe5\xae\x89\xe9\x97\xa8'
p136
aS'\xe9\x82\x93\xe5\xb0\x8f\xe5\xb9\xb3'
p137
aS'gcd'
p138
aS'SUCKPENIS'
p139
aS'\xe5\x91\xa8\xe6\xb0\xb8\xe5\xba\xb7'
p140
aS'Neckromancer'
p141
aS'\xe5\x96\x87\xe5\x98\x9b'
p142
aS'\xe7\xbd\x91\xe8\xaf\x84\xe5\x91\x98'
p143
aS'89-64cdjp'
p144
aS'ZHENGJIANWANG'
p145
aS'\xe5\x85\xad\xe5\x9b\x9b\xe9\xa3\x8e\xe6\xb3\xa2'
p146
aS'\xe8\x91\xa3\xe5\x85\x89\xe5\xb3\xb0'
p147
aS'\xe7\x8e\x8b\xe5\xae\x89\xe9\xa1\xba'
p148
aS'\xe8\x87\xaa\xe7\x84\x9a'
p149
aS'\xe5\x88\x98\xe6\x99\x93\xe6\xad\xa6'
p150
aS'\xe9\xbd\x90\xe9\xb2\x81\xe7\x9f\xb3\xe5\x8c\x96'
p151
aS'\xe7\x89\xa7\xe5\x87\xbd'
p152
aS'\xe9\x99\x88\xe8\x87\xb3\xe7\xab\x8b'
p153
aS'\xe4\xb8\xad\xe5\x9b\xbd\xe6\x96\xb0\xe6\xb0\x91\xe5\x85\x9a'
p154
aS'voachinese'
p155
aS'\xe4\xbd\xa0\xe5\xa6\x88\xe9\x97\xad'
p156
aS'\xe5\x85\xb1\xe4\xba\xa7\xe4\xb8\xbb\xe4\xb9\x89'
p157
aS'\xe6\x9d\x8e\xe5\x85\x8b\xe5\xbc\xba'
p158
aS'\xe4\xba\x9a\xe6\xb4\xb2\xe6\x97\xb6\xe6\x8a\xa5'
p159
aS'\xe4\xb8\xad\xe5\x9b\xbd\xe8\x87\xaa\xe7\x94\xb1\xe5\x85\x9a'
p160
aS'\xe4\xbd\x99\xe7\xa7\x8b\xe9\x9b\xa8'
p161
aS'\xe5\x85\xad\xe5\x9b\x9b\xe5\x8a\xa8\xe4\xb9\xb1'
p162
aS'\xe8\x83\xa1\xe5\x93\xa5'
p163
aS'\xe9\x87\x91\xe6\xad\xaa\xe6\x97\xa5'
p164
aS'\xe5\x85\xad\xe5\x9b\x9b\xe5\xb9\xb3\xe5\x8f\x8d'
p165
aS'\xe5\x85\xab\xe4\xb9\x9d\xe8\xbf\x90\xe5\x8a\xa8'
p166
aS'\xe6\xaf\x9b\xe5\xa4\xaa\xe4\xb8\x8a'
p167
aS'\xe6\x89\x93\xe5\x80\x92\xe5\x85\xb1\xe5\x85\x9a'
p168
aS'\xe9\x80\x80\xe9\xbb\xa8 \xe5\xa4\xa7\xe6\xbd\xae'
p169
aS'\xe8\x83\xa1\xe6\xb1\x9f'
p170
aS'\xe8\xa3\xa4\xe8\xa1\xa9\xe5\x85\x9a'
p171
aS'\xe5\x8d\xb5\xe5\xad\x90'
p172
aS'\xe6\xb8\xb8\xe8\xa1\x8c'
p173
aS'qiangjian'
p174
aS'\xe5\xae\x89\xe9\xad\x82\xe7\xbd\x91'
p175
aS'\xe5\x85\xad\xe5\x9b\x9b\xe5\xa4\xa7\xe5\xb1\xa0\xe6\xae\xba'
p176
aS'\xe9\x98\xb4\xe5\x94\x87\xe8\xa2\xab\xe6\x8f\x92'
p177
aS'zhuanfalun'
p178
aS'\xe5\xbc\x80\xe6\x9e\xaa \xe7\xa4\xba\xe5\xa8\x81 1989\xe5\xb9\xb4 \xe5\xa4\xa9\xe5\xae\x89\xe9\x97\xa8'
p179
aS'\xe9\x82\xaa\xe5\x85\x9a \xe4\xb9\x9d\xe8\xaf\x84'
p180
aS'\xe6\x88\x91\xe7\x9a\x84\xe6\x9c\x80\xe5\x90\x8e\xe9\x99\x88\xe8\xbf\xb0 \xe8\x96\x84\xe7\x86\x99\xe6\x9d\xa5'
p181
aS'Tibet free'
p182
aS'chinaliberal'
p183
aS'15\xe6\x97\xa5\xe5\xae\x9e\xe8\xa1\x8cx\xe5\x85\xa8\xe5\xb8\x82\xe5\xa4\xa7\xe7\xbd\xa2\xe5\xb7\xa5x\xe7\x81\x8c\xe4\xba\x91x\xe8\xbf\x9e\xe4\xba\x91\xe6\xb8\xaf'
p184
aS'\xe9\x83\x91\xe5\xad\x98\xe6\x9f\xb1'
p185
aS'\xe5\x85\xab\xe9\x85\x92\xe5\x85\xad\xe5\x9b\x9b'
p186
aS'\xe5\x87\xba\xe5\x94\xae\xe6\x9e\xaa\xe6\x94\xaf'
p187
aS'\xe4\xbb\xa4\xe8\xae\xa1\xe5\x88\x92'
p188
aS'\xe8\xb4\xba\xe5\x9b\xbd\xe5\xbc\xba'
p189
aS'\xe6\xb0\x91\xe8\xbf\x90'
p190
aS'\xe6\x9b\xb9\xe5\x88\x9a\xe5\xb7\x9d'
p191
aS'9\xe8\xaf\x84\xe5\x85\xb1\xe4\xba\xa7\xe5\x85\x9a'
p192
aS'\xe6\x88\x91\xe6\x93\x8d'
p193
aS'\xe6\xb8\xa9\xe4\xba\x91\xe6\x9d\xbe'
p194
aS'Tringel'
p195
aS'\xe7\x81\xad\xe4\xb8\xad\xe5\x85\xb1'
p196
aS'\xe5\x85\xad\xe5\x9b\x9b \xe5\xad\xb8\xe7\x94\x9f \xe6\xb0\x91\xe4\xb8\xbb\xe9\x81\x8b\xe5\x8b\x95'
p197
aS'\xe4\xbf\x9e\xe6\xad\xa3\xe5\xa3\xb0'
p198
aS'\xe9\x98\xb4\xe9\x81\x93'
p199
aS'\xe5\x85\xad\xe5\x9b\x9b\xe4\xba\x8b\xe4\xbb\xb6'
p200
aS'\xe5\xbd\xad\xe9\xba\xbb\xe9\xba\xbb \xe6\x9a\x97\xe6\x96\x97\xe5\xae\x8b\xe8\xb4\xb5\xe5\xa6\x83'
p201
aS'\xe8\x87\xaa\xe7\x94\xb1\xe4\xba\x9e\xe6\xb4\xb2\xe9\x9b\xbb\xe5\x8f\xb0'
p202
aS'\xe8\xa1\x80\xe8\x85\xa5 \xe5\xa4\xa9\xe5\xae\x89\xe9\x97\xa8'
p203
aS'\xe7\x8b\xac\xe7\xab\x8b\xe8\xa5\xbf\xe8\x97\x8f'
p204
aS'\xe5\x8d\x81\xe4\xb9\x9d\xe5\xa4\xa7\xe4\xba\x89\xe5\xa4\xba\xe6\x88\x98'
p205
aS'\xe8\xb4\xbe\xe7\x94\xb2'
p206
aS'renminbao'
p207
aS'\xe5\x85\xad\xe5\x9b\x9b\xe8\xa1\x80\xe8\x85\xa5\xe5\xb1\xa0\xe6\x9d\x80'
p208
aS'\xe6\x9c\xb1\xef\xbf\xbd\xe5\x9f\xba'
p209
aS'\xe5\x9d\x9a\xe5\xae\x88\xe7\xa7\x91\xe5\xb7\xb4\xe5\xb0\xbc \xe5\x8f\x99\xe5\x88\xa9\xe4\xba\x9a'
p210
aS'\xe5\x85\xad\xe5\x9b\x9b \xe5\x9d\xa6\xe5\x85\x8b\xe4\xba\xba \xe5\xad\xa6\xe7\x94\x9f'
p211
aS'\xe9\x9d\x99\xe5\x9d\x90'
p212
aS'\xe8\x83\xa1\xe9\x94\xa6\xe6\xb6\x9b\xe6\x8e\xa5\xe7\x8f\xad\xe4\xba\xba'
p213
aS'\xe8\x80\x81\xe8\x83\xa1'
p214
aS'\xe6\x94\xbf\xe6\xb2\xbb\xe8\x80\x81\xe4\xba\xba'
p215
aS'\xe7\xbd\x91\xe6\x98\x93sb'
p216
aS'\xe9\x80\x80\xe5\x85\x9a \xe9\x80\x80\xe5\x9b\xa2 \xe9\x80\x80\xe9\x98\x9f'
p217
aS'\xe6\x9d\x8e\xe9\xb9\x8f\xe7\x97\x85\xe9\x87\x8d'
p218
aS'\xe4\xb8\x89\xe4\xb8\xaa\xe4\xbb\xa3\xe8\xa1\xa8'
p219
aS'\xe4\xbd\xa0\xe8\x80\x81\xe6\xaf\x8d'
p220
aS'\xe5\xbc\xa0\xe5\x9f\xb9\xe8\x8e\x89'
p221
aS'\xe6\x9d\x8e\xe5\x9b\xbd\xe8\xb0\x85'
p222
aS'\xe9\xab\x98\xe5\xae\x98\xe4\xba\x92\xe8\xb0\x83'
p223
aS'\xe8\xae\xb0\xe5\xbf\xb5\xe5\x85\xad\xe5\x9b\x9b'
p224
aS'\xe9\xa2\x86\xe5\xaf\xbc\xe6\x96\xb0\xe6\x98\x9f'
p225
aS'\xe5\xa4\xaa\xe5\xad\x90\xe5\x85\x9a'
p226
aS'\xe5\xbd\xad\xe4\xb8\xbd\xe5\xaa\x9b'
p227
aS'\xe6\xb1\x9f\xe4\xb8\xbb\xe5\xb8\xad \xe5\x8e\xbb\xe4\xb8\x96'
p228
aS'\xe8\x80\x81\xe6\xb1\x9f \xe6\xb0\xa3\xe6\xae\xba\xe7\xbf\x92\xe5\xa4\xa7\xe5\xa4\xa7'
p229
aS'\xe7\xbd\x91\xe6\x98\x93SB'
p230
aS'64\xe5\xad\xa6\xe8\xbf\x90'
p231
aS'\xe5\xa5\xbd\xe8\x8e\xb1\xe5\x9d\x9e\xe8\x89\xb3\xe7\x85\xa7\xe9\x97\xa8\xe7\xa7\x8d\xe5\xad\x90'
p232
aS'\xe5\x94\x90\xe5\xae\xb6\xe7\x92\x87'
p233
aS'\xe8\x83\xa1\xe6\x80\xbb'
p234
aS'\xe8\x87\xaa\xe7\x94\xb1\xe4\xba\x9a\xe6\xb4\xb2\xe7\x94\xb5\xe5\x8f\xb0'
p235
aS'\xe5\x91\xa8\xe6\xb0\xb8\xe5\xba\xb7 \xe8\x87\xaa\xe8\xbe\xa9\xe4\xb9\xa6'
p236
aS'\xe7\x8e\x8b\xe5\x88\x9a'
p237
aS'\xe5\xb9\xbf\xe5\x9c\xba\xe4\xb8\x8a\xe7\x9a\x84\xe8\xa1\x80'
p238
aS'\xe8\x9a\x81\xe5\x8a\x9b\xe7\xa5\x9e'
p239
aS'\xe5\x85\xb1\xe4\xba\xa7\xe5\x85\x9a\xe4\xb8\x8b\xe5\x8f\xb0'
p240
aS'\xe5\x90\xb4\xe5\xae\x98\xe6\xad\xa3'
p241
aS'\xe9\x9b\xb6\xe5\x85\xab\xe5\xae\xaa\xe7\xab\xa0'
p242
aS'\xe7\x8e\x8b\xe5\x8a\x9b\xe5\x88\xa9'
p243
aS'\xe6\x97\xa0\xe7\x95\x8c\xe7\xbd\x91\xe7\xbb\x9c'
p244
aS'\xe9\x98\xb3\xe7\x97\xbf'
p245
aS'\xe8\x83\xa1\xe7\xb3\xbb\xe4\xba\xba\xe9\xa9\xac'
p246
aS'nacb'
p247
aS'\xe4\xb9\xa0\xe8\xbf\x91\xe5\xb9\xb3'
p248
aS'\xe5\xb9\xb3\xe5\x8f\x8d64'
p249
aS'\xe7\xbd\xa2\xe9\xa4\x90'
p250
aS'\xe5\xa4\xa9\xe5\xae\x89\xe9\x97\xa8\xe9\xa3\x8e\xe6\xb3\xa2'
p251
aS'\xe7\x82\xb8\xe5\xbc\xb9\xe5\x88\xb6\xe9\x80\xa0'
p252
aS'\xe5\x85\xad\xe5\x9b\x9b\xe6\x97\xa5\xe8\xa8\x98'
p253
aS'\xe4\xb8\xad\xe6\x9c\x9d\xe7\xbf\xbb\xe8\x84\xb8'
p254
aS'minghuinews'
p255
aS'\xe8\x8c\x85\xe5\x8e\x95\xe6\xb4\x9e'
p256
aS'\xe6\x96\xb9\xe5\xaf\xbf\xe4\xbc\x9f'
p257
aS'\xe6\xb1\x9f\xe6\xb3\xbd\xe6\xb0\x91 \xe6\xad\xbb\xe4\xba\x86'
p258
aS'\xe5\x85\xad\xe5\x9b\x9b \xe8\xa1\x80\xe8\x85\xa5 \xe9\x8e\xae\xe5\xa3\x93'
p259
aS'\xe6\x8f\xad\xe9\x9c\xb2\xe4\xb8\xad\xe5\x85\xb1'
p260
aS'\xe6\x9d\x8e\xe7\x8e\xb0\xe5\x8e\x9f'
p261
aS'\xe4\xb8\x8a\xe6\xb5\xb7\xe5\xb8\xae'
p262
aS'\xe8\x83\xa1\xe6\xb5\xb7\xe5\xb3\xb0'
p263
aS'\xe8\xa2\x81\xe9\xb9\xb0'
p264
aS'\xe9\x80\x80\xe5\x87\xba\xe4\xb8\xad\xe5\x85\xb1'
p265
aS'\xe5\x88\x98\xe4\xba\x9a\xe6\xb4\xb2'
p266
aS'\xe5\x85\xb1\xe9\x93\xb2\xe5\x85\x9a'
p267
aS'\xe9\x8e\xae\xe5\xa3\x93\xe5\xad\xb8\xe7\x94\x9f \xe6\x88\x92\xe5\x9a\xb4\xe9\x83\xa8\xe9\x9a\x8a \xe5\xa4\xa9\xe5\xae\x89\xe9\x96\x80\xe5\xbb\xa3\xe5\xa0\xb4'
p268
aS'\xe6\x9a\xb4\xe5\x8a\xa8'
p269
aS'\xe5\x85\xad\xe5\x9b\x9b\xe7\xba\xaa\xe5\xbf\xb5 \xe7\xbb\xb4\xe5\x9b\xad'
p270
aS'\xe6\xb3\x95\xe8\xbd\xae\xe5\x8a\x9f'
p271
aS'Clockgemstone'
p272
aS'\xe5\x85\xad\xe5\x9b\x9b \xe8\xb5\xb5\xe7\xb4\xab\xe9\x98\xb3 \xe5\x9d\xa6\xe5\x85\x8b'
p273
aS'\xe4\xb9\xa0\xe8\xbf\x91\xe5\xb9\xb3\xe9\x98\xb5\xe8\x90\xa5 \xe6\xb1\x9f\xe6\xb4\xbe'
p274
aS'falun'
p275
aS'1989 \xe5\xb1\xa0\xe6\x9d\x80 \xe5\xa4\xa9\xe5\xae\x89\xe9\x97\xa8\xe5\xb9\xbf\xe5\x9c\xba'
p276
aS'\xe8\x83\xa1\xe6\xb8\xa9\xe6\xa0\xb8\xe5\xbf\x83'
p277
aS'\xe4\xb9\x9d\xe8\xaf\x84'
p278
aS'\xe5\x85\xad\xe5\x9b\x9b\xe5\xad\xa6\xe7\x94\x9f\xe9\xa2\x86\xe8\xa2\x96'
p279
aS'lihongzhi'
p280
aS'\xe5\x8e\x86\xe5\x8f\xb2\xe7\x9a\x84\xe4\xbc\xa4\xe5\x8f\xa3 8964'
p281
aS'SHIT'
p282
aS'\xe6\x8d\x8c\xe7\x8e\x96'
p283
aS'\xe6\x9d\x8e\xe5\x85\x8b\xe5\xbc\xba\xe6\x8e\xa5\xe7\x8f\xad'
p284
aS'\xe5\x85\xad\xe5\x9b\x9b \xe5\xb1\xa0\xe6\xae\xba \xe8\xb6\x99\xe7\xb4\xab\xe9\x99\xbd'
p285
aS'\xe5\x85\xab\xe4\xb9\x9d\xe5\x85\xad\xe5\x9b\x9b'
p286
aS'\xe9\x94\xa6\xe6\xb6\x9b'
p287
aS'\xe5\x85\xad\xe5\x9b\x9b \xe6\x96\xb9\xe5\x8a\xb1\xe4\xb9\x8b'
p288
aS'\xe4\xb9\xa0\xe5\xa4\xaa\xe4\xb8\x8a'
p289
aS'\xe6\x96\xb0\xe8\x9c\x80\xe5\xb1\xb1'
p290
aS'\xe5\xbf\x97\xe6\x84\xbf\xe5\x85\xb5'
p291
aS'\xe5\x85\xad\xe5\x9b\x9b \xe5\x9d\xa6\xe5\x85\x8b \xe5\xb1\xa0\xe5\x9f\x8e'
p292
aS'wangce'
p293
aS'ustibet'
p294
aS'\xe6\x99\xaf\xe6\xb6\x9b'
p295
aS'\xe6\xb3\x95lun\xe5\x8a\x9f'
p296
aS'\xe5\x8d\x8e\xe5\xbb\xba\xe6\x95\x8f'
p297
aS'\xe5\xb9\xbf\xe5\x9c\xba\xe4\xb8\x8a\xe7\x9a\x84\xe7\x83\xad\xe8\xa1\x80'
p298
aS'\xe5\x9b\xa2\xe6\xb4\xbe\xe4\xba\xba\xe9\xa9\xac'
p299
aS'\xe5\x9b\x9e\xe6\xb1\x89\xe7\xba\xa0\xe7\xba\xb7'
p300
aS'\xe9\xab\x98\xe5\xbf\x97\xe6\x99\x9f'
p301
aS'\xe5\x85\xad\xe5\x9b\x9b \xe9\x95\x87\xe5\x8e\x8b \xe5\xad\xa6\xe7\x94\x9f'
p302
aS'Administrator'
p303
aS'tibetalk'
p304
aS'\xe6\xb1\x9f\xe4\xb8\xbb\xe5\xb8\xad \xe6\xad\xbb'
p305
aS'asshole'
p306
aS'\xe5\xae\x8b\xe5\xb9\xb3'
p307
aS'\xe8\x83\xa1\xe6\xb8\xa9'
p308
aS'\xe4\xb8\xad\xe5\x85\xb1\xe6\x9a\xb4\xe6\x94\xbf'
p309
aS'\xe5\x85\xad\xe5\x9b\x9b \xe8\xa1\x80\xe6\xa1\x88 \xe9\x82\x93\xe5\xb0\x8f\xe5\xb9\xb3'
p310
aS'kao'
p311
aS'PAPER64'
p312
aS'\xe5\x88\xb0\xe5\xb8\x82\xe6\x94\xbf\xe5\xba\x9c\xe8\xaf\xb7\xe6\x84\xbf'
p313
aS'\xe7\xbd\xa2\xe9\xa5\xad'
p314
aS'\xe6\xb4\xbb\xe6\x91\x98\xe5\x99\xa8\xe5\xae\x98'
p315
aS'\xe6\x8e\xa8\xe7\xbf\xbb\xe5\x85\xb1\xe4\xba\xa7\xe5\x85\x9a'
p316
aS'\xe6\xb1\x9f\xe6\xbe\xa4\xe6\xb0\x91 \xe6\xad\xbb\xe4\xba\x86'
p317
aS'DICK'
p318
aS'\xe6\xb6\x88\xe7\x81\xad\xe5\x85\xb1\xe4\xba\xa7\xe5\x85\x9a'
p319
aS'\xe7\x82\xb8\xe6\x8e\x89\xe8\xaf\x81\xe7\x9b\x91\xe4\xbc\x9a'
p320
aS'\xe6\xb3\x95\xe8\xbc\xaa\xe5\xa4\xa7\xe6\xb3\x95'
p321
aS'\xe8\x83\xa1\xe6\xb5\xb7\xe6\xb8\x85'
p322
aS'\xe5\x8d\x81\xe4\xb8\x83\xe5\xa4\xa7'
p323
aS'\xe5\x85\xad\xe5\x9b\x9b\xe7\xb4\x80\xe5\xbf\xb5\xe9\xa4\xa8'
p324
aS'\xe8\x87\xaa\xe6\x95\x91\xe4\xbc\x9a'
p325
aS'\xe7\xa7\xa6\xe9\x80\x8a\xe8\xbe\x89'
p326
aS'\xe5\x85\xad\xe8\x82\x86'
p327
aS'\xe4\xb8\x80\xe5\x85\x9a\xe4\xb8\x93\xe6\x94\xbf'
p328
aS'\xe5\x85\xad\xe5\x9b\x9b \xe5\xa4\xa9\xe5\xae\x89\xe9\x97\xa8\xe5\xb9\xbf\xe5\x9c\xba'
p329
aS'\xe5\x85\xad\xe5\x9b\x9b \xe8\xb5\xb5\xe7\xb4\xab\xe9\x98\xb3 \xe9\x95\x87\xe5\x8e\x8b'
p330
aS'\xe7\xbd\x91\xe6\xb0\x91\xe5\x85\x9a'
p331
aS'\xe5\xbc\xa0\xe9\x98\xb3\xe5\xbe\xb7'
p332
aS'\xe8\xae\xb8\xe5\xae\xb6\xe5\xb1\xaf \xe5\x85\xad\xe5\x9b\x9b'
p333
aS'\xe5\xa4\xa9\xe5\xae\x89\xe9\x97\xa8\xe6\x83\x85\xe4\xba\xba'
p334
aS'\xe9\x87\x8a\xe6\xb8\x85\xe6\xb5\xb7'
p335
aS'\xe6\x82\xbc\xe5\xbf\xb5 \xe7\xbb\xb4\xe5\x9b\xad \xe5\x85\xad\xe5\x9b\x9b'
p336
aS'\xe6\xb1\x9f\xe7\xab\xaf\xe4\xbb\xaa'
p337
aS'zangdu'
p338
aS'\xe5\x85\xad\xe5\x9b\x9b\xe7\xb4\x80\xe5\xbf\xb5 \xe7\xb6\xad\xe5\x9c\x92'
p339
aS'WEBZEN'
p340
aS'6-4tianwang'
p341
aS'\xe5\xa4\xa9\xe5\xae\x89\xe9\x97\xa8\xe9\x95\x87\xe5\x8e\x8b'
p342
aS'triangle'
p343
aS'\xe5\x85\xad\xe5\x9b\x9b \xe7\xba\xaa\xe5\xbf\xb5 \xe7\x8e\x8b\xe4\xb8\xb9'
p344
aS'dfdz'
p345
aS'\xe9\x99\x88\xe8\x89\xaf\xe5\xae\x87'
p346
aS'\xe9\x83\xad\xe6\xb3\x89'
p347
aS'\xe6\x8e\xa8\xe7\xbf\xbb\xe4\xb8\xad\xe5\x85\xb1'
p348
aS'\xe4\xb9\xa0\xe7\xa6\x81\xe8\xaf\x84'
p349
aS'\xe5\xbd\x93\xe4\xbb\xa3\xe5\x85\xab\xe4\xb9\xb1'
p350
aS'\xe6\x89\x93\xe5\x80\x92\xe4\xb8\xad\xe5\x9b\xbd\xe5\x85\xb1\xe4\xba\xa7\xe5\x85\x9a'
p351
aS'\xe5\x85\xad\xe5\x9b\x9b\xe5\xad\xa6\xe6\xbd\xae'
p352
aS'\xd8\xa6\xd9\x89\xd8\xb3\xd9\x84\xd8\xa7\xd9\x85 \xd8\xa6\xd8\xa7\xdb\x8b\xd8\xa7\xd8\xb2\xd9\x89'
p353
aS'KISSMYASS'
p354
aS'\xe8\xbe\xbd\xe5\xae\x81\xe5\xb8\xae'
p355
aS'\xe9\xab\x98\xe5\xae\x98\xe6\x8c\xa5\xe9\x9c\x8d\xe5\x85\xac\xe6\xac\xbe'
p356
aS'\xe5\x85\xab\xe4\xb9\x9d\xe6\xb0\x91\xe8\xbf\x90'
p357
aS'\xe6\x88\x92\xe4\xb8\xa5'
p358
aS'\xe5\x90\xb4\xe5\x90\x91\xe5\xbf\xa0'
p359
aS'\xe8\x97\x8f\xe9\x9d\x92\xe4\xbc\x9a'
p360
aS'\xe5\x8f\x82\xe6\x94\xbf\xe4\xbc\xa0\xe5\xa5\x87'
p361
aS'\xe8\x87\xaa\xe7\x94\xb1\xe5\x9c\xa3\xe7\x81\xab'
p362
aS'\xe6\x93\x8d\xe4\xbd\xa0\xe5\xa6\x88'
p363
aS'\xe6\x95\xb4\xe8\x82\x83\xe5\xae\x98\xe5\x9c\xba'
p364
aS'\xe5\xa4\xa7\xe7\xb4\x80\xe5\x85\x83'
p365
aS'\xe6\x93\x8d\xe5\xa5\xb3\xe4\xba\xba\xe7\xa9\xb4'
p366
aS'89\xe5\xb9\xb4 \xe5\xad\xa6\xe6\xbd\xae \xe9\x95\x87\xe5\x8e\x8b'
p367
aS'\xe5\x91\xa8\xe5\x90\x8d\xe5\x86\x9b'
p368
aS'\xe8\x83\xa1\xe6\xb8\xa9\xe6\x94\xbf\xe4\xbd\x93'
p369
aS'Gruepin'
p370
aS'chinesenewsnet'
p371
aS'\xe5\x85\xad\xe5\x9b\x9b\xe6\x88\x92\xe4\xb8\xa5\xe9\x83\xa8\xe9\x98\x9f'
p372
aS'\xe8\xa5\xbf\xe8\x97\x8f'
p373
aS'\xe5\xae\x98\xe5\x9c\xba\xe6\x97\xa5\xe5\xbf\x97'
p374
aS'\xe5\x85\xad\xe5\x9b\x9b\xe5\xa4\xa7\xe5\xb1\xa0\xe6\x9d\x80'
p375
aS'\xe4\xb8\xad\xe5\x85\xb1'
p376
aS'\xe9\x99\x86\xe8\x82\x86'
p377
aS'\xe8\x97\x8f\xe7\x8b\xac'
p378
aS'\xe4\xb9\xa0\xe6\xa0\xb8\xe5\xbf\x83'
p379
aS'\xe9\xab\x98\xe5\xb9\xb2\xe5\xad\x90\xe5\xbc\x9f\xe5\x90\x8d\xe5\x8d\x95'
p380
aS'\xe5\xa4\x9a\xe7\xbb\xb4\xe6\x96\xb0\xe9\x97\xbb'
p381
aS'\xe5\x85\xad\xe5\x9b\x9b\xe4\xba\x8b\xe4\xbb\xb6 \xe9\x82\x93\xe5\xb0\x8f\xe5\xb9\xb3'
p382
aS'\xe5\x85\xad\xe5\x9b\x9b\xe8\xbf\x90\xe5\x8a\xa8'
p383
aS'\xe8\x83\xa1\xe6\xb8\xa9\xe6\x94\xbf\xe6\xb2\xbb'
p384
aS'ZHENGJIAN'
p385
aS'wstaiji'
p386
aS'\xe7\xbb\xb4\xe6\x9d\x83'
p387
aS'\xe4\xbf\x9d\xe9\x92\x93'
p388
aS'89\xe4\xba\x8b\xe4\xbb\xb6'
p389
aS'\xe6\x9b\xbe\xe5\x9f\xb9\xe7\x82\x8e'
p390
aS'\xe7\xbb\x9d\xe9\xa3\x9f'
p391
aS'\xe7\x8e\x8b\xe4\xb8\xb9'
p392
aS'incest'
p393
aS'\xe4\xb8\xad\xe5\x85\xb1\xe4\xb8\x8b\xe5\x8f\xb0'
p394
aS'\xe5\x8d\x81\xe4\xba\x8c\xe4\xb8\xaa\xe6\x98\xa5\xe7\xa7\x8b'
p395
aS'\xe5\xbc\xa0\xe5\xbe\xb7\xe6\xb1\x9f'
p396
aS'\xe4\xbd\xa0\xe5\xa6\x88B'
p397
aS'\xe9\x99\x88\xe4\xb8\x80\xe6\x96\x87'
p398
aS'\xe5\x85\xad\xe5\x9b\x9b \xe4\xb8\xad\xe5\x85\xb1 \xe6\xad\xa6\xe5\x8a\x9b\xe9\x95\x87\xe5\x8e\x8b'
p399
aS'\xe6\x8e\xa8\xe7\xbf\xbb\xe4\xb8\xad\xe5\x9b\xbd\xe5\x85\xb1\xe4\xba\xa7\xe5\x85\x9a'
p400
aS'\xe5\x85\xb1\xe4\xba\xa7\xe5\x85\x9a'
p401
aS'\xe8\x83\xa1\xe6\x9b\xbe\xe8\x81\x94\xe6\x89\x8b'
p402
aS'\xe4\xb9\xa0\xe5\x8c\x85\xe5\xad\x90 \xe4\xb9\xa0\xe7\x89\xb9\xe5\x8b\x92'
p403
aS'creaders'
p404
aS'\xe6\xb1\x9f\xe7\xbb\xb5\xe6\x81\x92'
p405
aS'YUMING'
p406
aS'\xd8\xa8\xd9\x88\xd9\x84\xdb\x87 \xd8\xb4\xdb\x95\xda\xbe\xd9\x89\xd8\xaf'
p407
aS'HUANET'
p408
aS'\xe6\x96\x87\xe8\xbe\xbe\xe5\xad\xa6'
p409
aS'610\xe5\x8a\x9e\xe5\x85\xac\xe5\xae\xa4'
p410
aS'Guichuideng'
p411
aS'\xe5\xa4\xa9\xe5\xae\x89\xe9\x97\xa8\xe5\xb1\xa0\xe6\x9d\x80'
p412
aS'\xe8\x83\xa1\xe6\x9b\xbe\xe5\x90\x88\xe4\xbd\x9c'
p413
aS'\xe9\x98\xbf\xe6\xb3\xa2\xe7\xbd\x97\xe7\xbd\x91'
p414
aS'\xe5\x85\xb1\xe8\xb4\xaa\xe5\x85\x9a'
p415
aS'\xe5\x85\xab\xe4\xb9\x9d\xe6\xb0\x91\xe9\x81\x8b'
p416
aS'\xe6\x9d\x8e\xe9\xb9\x8f \xe7\xbb\x9d\xe9\xa3\x9f\xe7\x9a\x84\xe5\xad\xa6\xe7\x94\x9f \xe5\xa4\xa9\xe5\xae\x89\xe9\x97\xa8\xe5\xb9\xbf\xe5\x9c\xba'
p417
aS'\xe8\xa2\x81\xe4\xbe\x9d\xe5\x87\xa1'
p418
aS'\xe7\x82\xb8\xe5\xbc\xb9\xe5\x88\xb6\xe4\xbd\x9c'
p419
aS'\xe9\xa2\x84\xe6\xb5\x8b\xe9\xa2\x86\xe5\xaf\xbc\xe4\xba\xba'
p420
aS'\xe6\xb1\x9f\xe6\xb3\xbd\xe6\xb0\x91\xe5\x85\xb6\xe4\xba\xba'
p421
aS'\xe6\x96\x87\xe5\xad\x97\xe7\x8b\xb1'
p422
aS'\xe6\xb1\x9f\xe7\xbb\xb5\xe6\x81\x92 \xe8\xbd\xaf\xe7\xa6\x81'
p423
aS'\xe8\xbd\xaf\xe7\xa6\x81 \xe6\xb1\x9f\xe6\xb3\xbd\xe6\xb0\x91'
p424
aS'\xe4\xb8\xad\xe9\x9d\xa9\xe4\xb8\xad\xe5\xa4\xae'
p425
aS'\xe6\x93\x8d\xe4\xbd\xa0'
p426
aS'\xe6\x9b\xbe\xe4\xbc\x9f \xe6\x9b\xbe\xe5\xba\x86\xe7\xba\xa2'
p427
aS'\xe6\x9d\x8e\xe9\x94\x90'
p428
aS'\xe9\xab\x98\xe5\xb1\x82\xe4\xba\xba\xe4\xba\x8b\xe5\x8f\x98\xe5\x8a\xa8'
p429
aS'\xe5\x85\xb1\xe5\x8c\xaa'
p430
aS'\xe5\x8d\x81\xe5\x85\xab\xe5\xa4\xa7'
p431
aS'\xe6\x89\x93\xe5\x80\x92\xe4\xb8\xad\xe5\x85\xb1'
p432
aS'\xe9\x98\xb4\xe8\x8c\x8e'
p433
aS'xinsheng'
p434
aS'\xe9\x97\xa8\xe5\xbe\x92\xe4\xbc\x9a'
p435
aS'\xe8\x83\xa1\xe6\xb8\xa9\xe6\x96\xb0\xe6\x94\xbf'
p436
aS'\xe8\xa5\xbf\xe8\x97\x8f\xe8\x87\xaa\xe7\x94\xb1'
p437
aS'\xe7\x8e\x8b\xe6\x99\xa8'
p438
aS'\xe4\xb8\xad\xe5\x85\xb1\xe7\x8b\xac\xe8\xa3\x81\xe6\x9a\xb4\xe6\x94\xbf'
p439
aS'\xe5\x85\xb1\xe6\x83\xa8\xe5\x85\x9a'
p440
aS'\xe6\x89\x91\xe8\xa1\x97'
p441
aS'\xe6\xaf\x8b\xe5\xbf\x98\xe5\x85\xad\xe5\x9b\x9b'
p442
aS'\xe4\xba\xba\xe6\x9d\x83\xe5\xa5\x96'
p443
aS'\xe8\x83\xa1\xe9\x94\xa6\xe6\xb6\x9b'
p444
aS'\xe7\xbb\xb4\xe5\x9f\xba\xe7\x99\xbe\xe7\xa7\x91'
p445
aS'\xe6\x9d\x8e\xe7\x91\x9e\xe7\x8e\xaf'
p446
aS'\xe7\xaa\x81\xe7\xa0\xb4\xe4\xb8\xad\xe5\x85\xb1'
p447
aS'\xe4\xba\x8c\\\xe6\x95\x8f\xe6\x84\x9f\xe8\xaf\x8d'
p448
aS'\xe6\xb1\x9f\xe6\xbe\xa4\xe6\xb0\x91\xe5\x85\xb6\xe4\xba\xba'
p449
aS'\xe7\xbb\x9f\xe4\xb8\x80\xe8\x82\xa1\xe5\xb8\x82'
p450
aS'\xe4\xb8\xad\xe5\x9b\xbd\xe6\x94\xbfF'
p451
aS'\xe6\xb8\xa9\xe5\x8a\xa0\xe9\xa5\xb1'
p452
aS'\xe6\xb1\xaa\xe5\x85\x86\xe9\x92\xa7'
p453
aS'\xe7\xbb\x9d\xe9\xa3\x9f \xe5\xa3\xb0\xe6\x8f\xb4\xe5\xad\xa6\xe7\x94\x9f \xe5\xa4\xa9\xe5\xae\x89\xe9\x97\xa8\xe5\xb9\xbf\xe5\x9c\xba'
p454
aS'BLOWJOB'
p455
aS'\xe5\x90\xb4\xe4\xbb\xaa'
p456
aS'\xe5\x8f\xa4\xe5\x85\xb0\xe7\xbb\x8f'
p457
aS'\xe6\x9d\x8e\xe6\xb4\xaa\xe5\xbf\x97'
p458
aS'\xe5\x9b\x9e\xe6\x95\x99'
p459
aS'\xe8\xb4\xba\xe5\x8d\xab\xe6\x96\xb9'
p460
aS'\xe5\x91\xa8\xe6\xad\xa3\xe6\xaf\x85'
p461
aS'\xe6\x96\xb0\xe5\x85\xab\xe8\x8d\xa3\xe5\x85\xab\xe8\x80\xbb'
p462
aS'\xe5\x85\x9a\xe7\xa6\x81'
p463
aS'\xe5\x8d\x8e\xe5\x9b\xbd\xe9\x94\x8b'
p464
aS'\xe7\xbd\xa2\xe5\x90\x83'
p465
aS'\xe8\x83\xa1\xe6\xb8\xa9\xe6\x8e\xa5\xe7\x8f\xad\xe4\xba\xba'
p466
aS'\xe5\xb9\xb2\xe4\xbd\xa0\xe5\xa6\x88'
p467
aS'\xe6\x89\x93\xe5\x80\x92\xe5\x85\xb1\xe4\xba\xa7\xe5\x85\x9a'
p468
aS'\xe5\x85\xad\xe5\x9b\x9b\xe5\xa4\xa9\xe5\xae\x89\xe9\x97\xa8'
p469
aS'\xe6\x96\xb0\xe4\xb8\x96\xe7\xba\xaa\xe6\x96\xb0\xe9\x97\xbb\xe7\xbd\x91'
p470
aS'\xe5\x85\xad\xe5\x9b\x9b\xe5\xad\xa6\xe8\xbf\x90'
p471
aS'\xe7\x8e\x8b\xe4\xb9\x90\xe6\xb3\x89'
p472
aS'89\xe5\xad\xa6\xe6\xbd\xae'
p473
aS'\xe5\x8f\xb0\xe7\x8b\xac'
p474
aS'\xe5\xa6\x88\xe7\x9a\x84'
p475
aS'\xe5\x85\xac\xe5\xbc\x80\xe4\xbf\xa1'
p476
aS'allah yolida'
p477
aS'\xe5\x85\xad\xe5\x9b\x9b \xe5\x88\x98\xe6\x99\x93\xe6\xb3\xa2'
p478
aS'jiaochuang'
p479
aS'64\xe5\xad\xa6\xe6\xbd\xae'
p480
aS'\xe9\xab\x98\xe5\xb1\x82\xe6\x9d\x83\xe5\x8a\x9b\xe4\xb9\x8b\xe4\xba\x89'
p481
aS'\xe5\x8f\xbc'
p482
aS'\xe8\x83\xa1\xe5\xa4\xaa\xe4\xb8\x8a'
p483
aS'\xe4\xbb\x96\xe5\xa6\x88'
p484
aS'\xe5\xbb\xb6\xe5\xae\x89\xe6\x97\xa5\xe8\xae\xb0'
p485
aS'\xe8\xb4\xbe\xe5\xba\x86\xe6\x9e\x97'
p486
aS'\xe9\xbb\x84\xe8\x8f\x8a'
p487
aS'\xe5\xa4\xa9\xe5\xae\x89\xe9\x97\xa8\xe5\xb1\xa0\xe5\xa4\xab'
p488
aS'chinamz'
p489
aS'\xe7\x8e\x8b\xe5\x85\x86\xe5\x9b\xbd'
p490
aS'\xd8\xa6\xd8\xa7\xd9\x84\xd9\x84\xd8\xa7\xda\xbe \xd9\x8a\xd9\x88\xd9\x84\xd9\x89\xd8\xaf\xd8\xa7'
p491
aS'free Tibet'
p492
aS'\xe5\xa4\xaa\xe5\x9e\x83JI'
p493
aS'\xe4\xb8\x8a\xe8\xae\xbf'
p494
aS'\xe7\xbd\xa2\xe9\xa3\x9f'
p495
aS'\xe8\x83\xa1\xe4\xb9\xa6\xe8\xae\xb0'
p496
aS'\xe5\x90\xbe\xe5\xb0\x94\xe5\xbc\x80\xe5\xb8\x8c'
p497
aS'\xe7\x9c\x9f\xe5\x96\x84\xe5\xbf\x8d'
p498
aS'\xe9\x9f\x93\xe6\xad\xa3 \xe5\x8f\x96\xe4\xbb\xa3\xe6\x9d\x8e\xe5\x85\x8b\xe5\xbc\xb7'
p499
aS'\xe5\x85\xad\xe5\x9b\x9b\xe7\xba\xaa\xe5\xbf\xb5\xe9\xa6\x86'
p500
aS'\xe6\x9b\xbe\xe5\xba\x86\xe7\xba\xa2'
p501
aS'\xe7\xbf\x92\xe8\xbf\x91\xe5\xb9\xb3\xe9\x99\xa3\xe7\x87\x9f \xe6\xb1\x9f\xe6\xb4\xbe'
p502
aS'\xe9\x92\xa6\xe7\x82\xb9\xe6\x8e\xa5\xe7\x8f\xad\xe4\xba\xba'
p503
aS'\xe4\xbb\xa4\xe7\x8b\x90\xe8\xae\xa1\xe5\x88\x92'
p504
aS'\xe5\xa4\xa9\xe5\xae\x89\xe9\x97\xa8\xe5\x9d\xa6\xe5\x85\x8b'
p505
aS'\xe8\x83\xa1\xe7\xb3\xbb'
p506
aS'\xe5\x85\x9a\xe9\xad\x81'
p507
aS'\xe9\xad\x8f\xe4\xba\xac\xe7\x94\x9f'
p508
aS'89\xe5\xb9\xb4 \xe5\x8c\x97\xe4\xba\xac\xe6\x88\x92\xe4\xb8\xa5'
p509
aS'\xe9\x99\x88\xe5\x85\x89\xe8\xaf\x9a'
p510
aS'\xe6\x9d\x83\xe5\x8a\x9b\xe5\xb8\x83\xe5\xb1\x80'
p511
aS'\xe7\x98\x9f\xe5\xae\xb6\xe5\xae\x9d'
p512
aS'\xe4\xb8\xbb\xe4\xb9\x89'
p513
aS'\xe7\x80\x9b\xe6\xb5\xb7\xe9\x95\x87'
p514
aS'\xe4\xba\xba\xe6\x9d\x83\xe5\x9c\xa3\xe7\x81\xab'
p515
aS'\xe5\x85\xad\xe5\x9b\x9b \xe8\xb5\xb5\xe7\xb4\xab\xe9\x98\xb3 \xe8\xbd\xaf\xe7\xa6\x81'
p516
aS'1989 \xe6\xb0\x91\xe4\xb8\xbb\xe8\xbf\x90\xe5\x8a\xa8'
p517
aS'\xe5\x85\xad\xe5\x9b\x9b \xe5\x8a\x89\xe6\x9b\x89\xe6\xb3\xa2'
p518
aS'\xe9\x98\xb3\xe5\x85\xb7'
p519
aS'\xe5\x85\xad\xe5\x9b\x9b\xe9\x95\x87\xe5\x8e\x8b \xe4\xb8\xad\xe5\x85\xb1'
p520
aS'triangleboy'
p521
aS'\xe5\xa4\xa9\xe5\xae\x89\xe9\x97\xa8\xe8\x99\x90\xe6\x9d\x80'
p522
aS'\xe5\x88\x98\xe6\x9e\x97\xe6\x99\xba'
p523
aS'\xe5\x9b\x9e\xe8\x89\xaf\xe7\x8e\x89'
p524
aS'\xe7\xa9\x86\xe6\x96\xaf\xe6\x9e\x97'
p525
aS'\xe5\x8a\xa8\xe6\x80\x81\xe7\xbd\x91'
p526
aS'\xe5\xa4\xa9\xe5\xae\x89\xe9\x97\xa8\xe5\x85\xad\xe5\x9b\x9b'
p527
aS'\xe5\xad\x90\xe5\xae\xab'
p528
aS'\xe4\xb8\xa5\xe7\xa6\x81\xe8\xaf\x8d'
p529
aS'\xe8\x80\x81\xe4\xba\xba\xe9\x9b\x86\xe5\x9b\xa2'
p530
aS'\xe6\xb1\x9f\xe6\xb3\xbd\xe6\xb0\x91'
p531
aS'\xe7\x8e\x8b\xe5\xbf\x97\xe5\x88\x9a'
p532
aS'\xe9\xa9\xb4B'
p533
aS'\xe5\x85\xa8\xe7\x90\x83\xe4\xba\xba\xe6\x96\x87\xe7\xba\xaa\xe5\x85\x83'
p534
aS'\xe9\x84\xa7\xe5\xb0\x8f\xe5\xb9\xb3'
p535
aS'\xe4\xb8\x89\xe5\x94\x91\xe4\xbb\x91'
p536
aS'\xe7\xbe\x8e\xe5\x9b\xbd\xe4\xb9\x8b\xe9\x9f\xb3'
p537
aS'\xe6\x9d\x8e\xe6\xbb\xa8'
p538
aS'\xe6\xb8\xa9\xe5\xae\xb6\xe5\xae\x9d'
p539
aS'netease'
p540
aS'\xe7\x9c\x9f\xe7\x9b\xb8 \xe5\x85\xb1\xe4\xba\xa7\xe5\x85\x9a 64\xe5\xb1\xa0\xe6\x9d\x80'
p541
aS'\xe8\xb5\xb5\xe7\xb4\xab\xe9\x98\xb3'
p542
aS'\xe5\xa4\xa9\xe5\xae\x89\xe9\x97\xa8\xe8\x87\xaa\xe7\x84\x9a'
p543
aS'renmingbao'
p544
aS'\xe5\x85\xab\xe4\xb9\x9d\xe8\xa1\x80\xe6\xa1\x88'
p545
aS'NMIS'
p546
aS'\xe8\xb5\xb5\xe6\x80\xbb\xe7\x90\x86'
p547
aS'*'
p548
aS'\xe5\x9d\xa6\xe5\x85\x8b \xe5\x85\xad\xe5\x9b\x9b \xe5\xb1\xa0\xe6\x9d\x80'
p549
aS'\xe5\x85\xad\xe5\x9b\x9b \xe5\x85\xac\xe5\xbc\x80\xe4\xbf\xa1'
p550
aS'\xe7\xb4\xab\xe9\x98\xb3'
p551
aS'\xe9\x80\x80\xe5\x85\x9a \xe5\xa4\xa7\xe6\xbd\xae'
p552
aS'\xe5\xa4\xa9\xe5\xae\x89\xe9\x97\xa8\xe6\xb5\x81\xe8\xa1\x80'
p553
aS'\xe5\x91\xa8\xe6\xb0\xb8\xe5\xba\xb7 \xe8\x96\x84\xe7\x86\x99\xe6\x9d\xa5 \xe6\x94\xbf\xe5\x8f\x98'
p554
aS'64\xe8\xbf\x90\xe5\x8a\xa8'
p555
aS'\xe5\x85\xad\xe5\x9b\x9b\xe6\x9a\xb4\xe4\xb9\xb1'
p556
aS'\xe6\xb1\x9f\xe6\xb3\xbd\xe6\xb0\x91 \xe5\x8e\xbb\xe4\xb8\x96'
p557
aS'\xe6\x8e\xa8\xe7\xbf\xbb\xe5\x85\xb1\xe5\x85\x9a'
p558
aS'\xe9\xab\x98\xe6\x99\xba\xe6\x88\x90'
p559
aS'\xe8\xbb\x9f\xe7\xa6\x81 \xe6\xb1\x9f\xe6\xbe\xa4\xe6\xb0\x91'
p560
aS'ADMIN'
p561
aS'\xe6\x80\xbb\xe4\xb9\xa6\xe8\xae\xb0'
p562
aS'163'
p563
aS'\xe6\x96\xb0\xe9\x97\xbb\xe5\x8a\x9e'
p564
aS'\xe6\xb3\x95\xe8\xbd\xae\xe5\xa4\xa7\xe6\xb3\x95'
p565
aS'\xef\xbf\xbd\xe5\xae\xb6\xe4\xba\xa7'
p566
aS'\xe5\x9b\xbd\xe6\x96\xb0\xe5\x8a\x9e\xe4\xb8\xbb\xe4\xbb\xbb'
p567
aS'minghui'
p568
aS'\xe6\x9d\x8e\xe6\xba\x90\xe6\xbd\xae'
p569
aS'\xe5\x85\xab\xe4\xb9\x9d\xe5\xad\xa6\xe6\xbd\xae'
p570
aS'\xe6\xb3\x95\xe8\xbc\xaa\xe5\x8a\x9f'
p571
aS'\xe8\x8c\x89\xe8\x8e\x89\xe8\x8a\xb1\xe9\x9d\xa9\xe5\x91\xbd'
p572
aS'\xe7\x82\xb8\xe4\xba\x86\xe8\xaf\x81\xe7\x9b\x91\xe4\xbc\x9a'
p573
aS'\xe5\xb9\xb2\xe4\xbd\xa0\xe5\x85\xa8\xe5\xae\xb6'
p574
aS'89\xe8\xbf\x90\xe5\x8a\xa8'
p575
aS'\xe8\xbe\xbe\xe8\xb5\x96'
p576
aS'\xe7\xba\xaa\xe5\xbf\xb5\xe5\x85\xad\xe5\x9b\x9b'
p577
aS'\xe5\xa4\xa7\xe8\xb5\xa6\xe5\x9b\xbd\xe9\x99\x85'
p578
aS'hrichina'
p579
aS'ZHU\xe6\x89\x80\xe7\x94\x9f\xef\xbc\x81'
p580
aS'shit'
p581
aS'\xe6\xb6\x89\xe5\x8f\xb0\xe6\x94\xbf\xe5\xb1\x80'
p582
aS'\xe6\x8d\x8c\xe7\x8e\x96\xe9\x99\x86\xe8\x82\x86'
p583
aS'\xe5\x85\xad\xe5\x9b\x9b\xe6\x97\xa5\xe8\xae\xb0'
p584
aS'\xe5\x85\xad\xe5\x9b\x9b \xe8\xa1\x80\xe8\x85\xa5 \xe9\x95\x87\xe5\x8e\x8b'
p585
aS'\xe5\x85\xad\xe5\x9b\x9b\xe4\xba\x8b\xe4\xbb\xb6 \xe9\x84\xa7\xe5\xb0\x8f\xe5\xb9\xb3'
p586
aS'\xe6\xb1\x9f\xe6\xb3\xbd\xe6\xb0\x91 \xe6\xb1\x9f\xe5\xae\xb6\xe5\xb8\xae'
p587
aS'\xe6\x91\x86\xe8\x84\xb1\xe4\xb8\xad\xe5\x85\xb1\xe9\x99\x84\xe4\xbd\x93'
p588
aS'\xe5\x81\x87\xe5\xba\x86\xe6\xb7\x8b'
p589
aS'\xe4\xb8\xad\xe5\x8d\x97\xe6\xb5\xb7'
p590
aS'\xe5\x86\x85\xe4\xba\x89\xe4\xba\xba\xe6\x9d\x83'
p591
aS'jiangdongriji'
p592
aS'\xe6\xb1\x9f\xe5\xae\xb6\xe5\xb8\xae'
p593
aS'\xe5\x8a\xa8\xe4\xb9\xb1 \xe5\xad\xa6\xe6\xbd\xae 1989\xe9\xa3\x8e\xe6\xb3\xa2'
p594
aS'UltraSurf'
p595
aS'\xe5\x8b\xbf\xe5\xbf\x98\xe5\x85\xad\xe5\x9b\x9b'
p596
aS'\xe5\xbc\x80\xe6\x94\xbe\xe6\x9d\x82\xe5\xbf\x97'
p597
aS'\xe5\xbe\xb7\xe5\x9b\xbd\xe4\xb9\x8b\xe5\xa3\xb0'
p598
aS'\xe7\xbd\x97\xe5\xb9\xb2'
p599
aS'89\xe6\xb0\x91\xe8\xbf\x90'
p600
aS'\xe6\x9f\xb4\xe7\x8e\xb2'
p601
aS'dajiyuan'
p602
aS'\xe9\x92\x93\xe9\xb1\xbc\xe5\xb2\x9b'
p603
aS'\xe5\x85\xad\xe5\x9b\x9b \xe6\x82\xbc\xe5\xbf\xb5 \xe7\x83\x9b\xe5\x85\x89\xe6\x99\x9a\xe4\xbc\x9a'
p604
aS'Feelmistone'
p605
aS'\xe6\x8a\xb5\xe5\x88\xb6\xe5\xa5\xa5\xe8\xbf\x90'
p606
asS'_indexed_document'
p607
(dp608
I0
(V
p609
(lp610
tp611
sI1
(V\u516d\u56db \u516c\u958b\u4fe1
p612
(lp613
V\u516d
p614
aV\u56db
p615
aV\u516c
p616
aV\u958b
p617
aV\u4fe1
p618
atp619
sI2
(V\u80e1\u6e29\u66b4\u653f
p620
(lp621
V\u80e1
p622
aV\u6e29
p623
aV\u66b4
p624
aV\u653f
p625
atp626
sI3
(V\u666e\u9009
p627
(lp628
V\u666e
p629
aV\u9009
p630
atp631
sI4
(V\u674e\u4e16\u8f89
p632
(lp633
V\u674e
p634
aV\u4e16
p635
aV\u8f89
p636
atp637
sI5
(V\u5e7f\u573a\u4e0a\u7684\u9c9c\u8840
p638
(lp639
V\u5e7f
p640
aV\u573a
p641
aV\u4e0a
p642
aV\u7684
p643
aV\u9c9c
p644
aV\u8840
p645
atp646
sI6
(V\u591a\u7ef4\u65b0\u95fb\u7f51
p647
(lp648
V\u591a
p649
aV\u7ef4
p650
aV\u65b0
p651
aV\u95fb
p652
aV\u7f51
p653
atp654
sI7
(V\u5929\u5b89\u95e8 \u592a\u5b50\u515a \u4e8b\u4ef6
p655
(lp656
V\u5929
p657
aV\u5b89
p658
aV\u95e8
p659
aV\u592a
p660
aV\u5b50
p661
aV\u515a
p662
aV\u4e8b
p663
aV\u4ef6
p664
atp665
sI8
(V\u6bdb\u4e3b\u5e2d
p666
(lp667
V\u6bdb
p668
aV\u4e3b
p669
aV\u5e2d
p670
atp671
sI9
(V\u793a\u5a01
p672
(lp673
V\u793a
p674
aV\u5a01
p675
atp676
sI10
(V\u90a6\u56fd
p677
(lp678
V\u90a6
p679
aV\u56fd
p680
atp681
sI11
(Vtaip
p682
(lp683
Vtaip
p684
atp685
sI12
(V\u6bdb\u6cfd\u4e1c
p686
(lp687
V\u6bdb
p688
aV\u6cfd
p689
aV\u4e1c
p690
atp691
sI13
(V\u7a81\u53a5\u9769\u547d
p692
(lp693
V\u7a81
p694
aV\u53a5
p695
aV\u9769
p696
aV\u547d
p697
atp698
sI14
(V\u6c5f\u6cfd\u6c11\u75c5\u901d
p699
(lp700
V\u6c5f
p701
aV\u6cfd
p702
aV\u6c11
p703
aV\u75c5
p704
aV\u901d
p705
atp706
sI15
(V\u5a74\u513f\u6c64
p707
(lp708
V\u5a74
p709
aV\u513f
p710
aV\u6c64
p711
atp712
sI16
(V\u9a6c\u5fd7\u9e4f
p713
(lp714
V\u9a6c
p715
aV\u5fd7
p716
aV\u9e4f
p717
atp718
sI17
(V\u9a6c\u5217\u515a
p719
(lp720
V\u9a6c
p721
aV\u5217
p722
aV\u515a
p723
atp724
sI18
(V\u65b0\u5510\u4eba
p725
(lp726
V\u65b0
p727
aV\u5510
p728
aV\u4eba
p729
atp730
sI19
(V\u5218\u4e91\u5c71
p731
(lp732
V\u5218
p733
aV\u4e91
p734
aV\u5c71
p735
atp736
sI20
(V\u897f\u85cf\u72ec\u7acb
p737
(lp738
V\u897f
p739
aV\u85cf
p740
aV\u72ec
p741
aV\u7acb
p742
atp743
sI21
(V\u5e9f\u9664\u4e2d\u5171
p744
(lp745
V\u5e9f
p746
aV\u9664
p747
aV\u4e2d
p748
aV\u5171
p749
atp750
sI22
(V\u51fa\u552e\u624b\u67aa
p751
(lp752
V\u51fa
p753
aV\u552e
p754
aV\u624b
p755
aV\u67aa
p756
atp757
sI23
(VHACKING
p758
(lp759
Vhacking
p760
atp761
sI24
(V\u516d\u56db \u5b66\u6f6e \u6c11\u8fd0
p762
(lp763
V\u516d
p764
aV\u56db
p765
aV\u5b66
p766
aV\u6f6e
p767
aV\u6c11
p768
aV\u8fd0
p769
atp770
sI25
(V\u5929\u5b89\u95e8\u4e8b\u4ef6
p771
(lp772
V\u5929
p773
aV\u5b89
p774
aV\u95e8
p775
aV\u4e8b
p776
aV\u4ef6
p777
atp778
sI26
(V\u9547\u538b\u56fe\u7247
p779
(lp780
V\u9547
p781
aV\u538b
p782
aV\u56fe
p783
aV\u7247
p784
atp785
sI27
(V\u901a\u5546\u5bbd\u8863
p786
(lp787
V\u901a
p788
aV\u5546
p789
aV\u5bbd
p790
aV\u8863
p791
atp792
sI28
(V\u4e01\u78ca
p793
(lp794
V\u4e01
p795
aV\u78ca
p796
atp797
sI29
(V\u5927\u6cd5\u5f1f\u5b50
p798
(lp799
V\u5927
p800
aV\u6cd5
p801
aV\u5f1f
p802
aV\u5b50
p803
atp804
sI30
(V\u5218\u6dc7
p805
(lp806
V\u5218
p807
aV\u6dc7
p808
atp809
sI31
(Vfreechina
p810
(lp811
Vfreechina
p812
atp813
sI32
(V\u4e5d\u8a55\u5171\u7522\u9ee8
p814
(lp815
V\u4e5d
p816
aV\u8a55
p817
aV\u5171
p818
aV\u7522
p819
aV\u9ee8
p820
atp821
sI33
(V89\u6c11\u8fd0 \u9093\u5c0f\u5e73 \u9547\u538b
p822
(lp823
V89
p824
aV\u6c11
p825
aV\u8fd0
p826
aV\u9093
p827
aV\u5c0f
p828
aV\u5e73
p829
aV\u9547
p830
aV\u538b
p831
atp832
sI34
(V\u738b\u5efa\u742a
p833
(lp834
V\u738b
p835
aV\u5efa
p836
aV\u742a
p837
atp838
sI35
(V\u674e\u9e4f
p839
(lp840
V\u674e
p841
aV\u9e4f
p842
atp843
sI36
(V\u5927\u9884\u8a00
p844
(lp845
V\u5927
p846
aV\u9884
p847
aV\u8a00
p848
atp849
sI37
(V\u516d\u56db\u70db\u5149\u96c6\u4f1a
p850
(lp851
V\u516d
p852
aV\u56db
p853
aV\u70db
p854
aV\u5149
p855
aV\u96c6
p856
aV\u4f1a
p857
atp858
sI38
(V\u738b\u51e4\u53cb
p859
(lp860
V\u738b
p861
aV\u51e4
p862
aV\u53cb
p863
atp864
sI39
(V\u5929\u5b89\u95e8\u6bcd\u4eb2\u8fd0\u52a8
p865
(lp866
V\u5929
p867
aV\u5b89
p868
aV\u95e8
p869
aV\u6bcd
p870
aV\u4eb2
p871
aV\u8fd0
p872
aV\u52a8
p873
atp874
sI40
(V\u6bdb\u515a
p875
(lp876
V\u6bdb
p877
aV\u515a
p878
atp879
sI41
(V\u65b0\u53f3\u6d3e
p880
(lp881
V\u65b0
p882
aV\u53f3
p883
aV\u6d3e
p884
atp885
sI42
(V\u56e2\u6d3e\u653f\u6cbb\u660e\u661f
p886
(lp887
V\u56e2
p888
aV\u6d3e
p889
aV\u653f
p890
aV\u6cbb
p891
aV\u660e
p892
aV\u661f
p893
atp894
sI43
(V\u8d85\u8d8a\u7ea2\u5899
p895
(lp896
V\u8d85
p897
aV\u8d8a
p898
aV\u7ea2
p899
aV\u5899
p900
atp901
sI44
(V89\u5b66\u8fd0
p902
(lp903
V89
p904
aV\u5b66
p905
aV\u8fd0
p906
atp907
sI45
(V\u7cbe\u5b50
p908
(lp909
V\u7cbe
p910
aV\u5b50
p911
atp912
sI46
(V\u5f90\u6587\u5e93
p913
(lp914
V\u5f90
p915
aV\u6587
p916
aV\u5e93
p917
atp918
sI47
(V\u062c\u06d5\u0646\u0646\u06d5\u062a \u0626\u0627\u0634\u0649\u0642
p919
(lp920
V\u062c
p921
aV\u06d5
p922
aV\u0646
p923
aV\u0646
p924
aV\u06d5
p925
aV\u062a
p926
aV\u0626
p927
aV\u0627
p928
aV\u0634
p929
aV\u0649
p930
aV\u0642
p931
atp932
sI48
(V\u516b\u4e5d\u5b66\u8fd0
p933
(lp934
V\u516b
p935
aV\u4e5d
p936
aV\u5b66
p937
aV\u8fd0
p938
atp939
sI49
(VGCD
p940
(lp941
Vgcd
p942
atp943
sI50
(V\u5341\u4e5d\u5e74\u524d
p944
(lp945
V\u5341
p946
aV\u4e5d
p947
aV\u5e74
p948
aV\u524d
p949
atp950
sI51
(V\u8d75\u7d2b\u9633 \u516d\u56db\u81ea\u8fa9
p951
(lp952
V\u8d75
p953
aV\u7d2b
p954
aV\u9633
p955
aV\u516d
p956
aV\u56db
p957
aV\u81ea
p958
aV\u8fa9
p959
atp960
sI52
(V\u4eba\u6c11\u771f\u5b9e\u62a5
p961
(lp962
V\u4eba
p963
aV\u6c11
p964
aV\u771f
p965
aV\u5b9e
p966
aV\u62a5
p967
atp968
sI53
(Vhypermart.net
p969
(lp970
Vhypermart.net
p971
atp972
sI54
(V\u5927\u7eaa\u5143
p973
(lp974
V\u5927
p975
aV\u7eaa
p976
aV\u5143
p977
atp978
sI55
(V\u5e73\u53cd\u516d\u56db
p979
(lp980
V\u5e73
p981
aV\u53cd
p982
aV\u516d
p983
aV\u56db
p984
atp985
sI56
(V\u5730\u9707
p986
(lp987
V\u5730
p988
aV\u9707
p989
atp990
sI57
(V\u9886\u8dd1\u7b2c\u4e94\u4ee3
p991
(lp992
V\u9886
p993
aV\u8dd1
p994
aV\u7b2c
p995
aV\u4e94
p996
aV\u4ee3
p997
atp998
sI58
(V\u9093\u4e0d\u7fa4
p999
(lp1000
V\u9093
p1001
aV\u4e0d
p1002
aV\u7fa4
p1003
atp1004
sI59
(V\u5927\u662d\u5bfa
p1005
(lp1006
V\u5927
p1007
aV\u662d
p1008
aV\u5bfa
p1009
atp1010
sI60
(V\u5929\u5b89\u95e8\u5927\u5c60\u6740
p1011
(lp1012
V\u5929
p1013
aV\u5b89
p1014
aV\u95e8
p1015
aV\u5927
p1016
aV\u5c60
p1017
aV\u6740
p1018
atp1019
sI61
(V\u5929\u5b89\u95e8\u6bcd\u4eb2
p1020
(lp1021
V\u5929
p1022
aV\u5b89
p1023
aV\u95e8
p1024
aV\u6bcd
p1025
aV\u4eb2
p1026
atp1027
sI62
(V\u516b\u4e5d\u66b4\u4e71
p1028
(lp1029
V\u516b
p1030
aV\u4e5d
p1031
aV\u66b4
p1032
aV\u4e71
p1033
atp1034
sI63
(V\u4ec1\u5409\u65fa\u59c6
p1035
(lp1036
V\u4ec1
p1037
aV\u5409
p1038
aV\u65fa
p1039
aV\u59c6
p1040
atp1041
sI64
(V\u4e2d\u5357\u6d77\u6597\u4e89
p1042
(lp1043
V\u4e2d
p1044
aV\u5357
p1045
aV\u6d77
p1046
aV\u6597
p1047
aV\u4e89
p1048
atp1049
sI65
(V\u6c5f\u86e4\u87c6
p1050
(lp1051
V\u6c5f
p1052
aV\u86e4
p1053
aV\u87c6
p1054
atp1055
sI66
(V\u515a\u4ea7\u5171
p1056
(lp1057
V\u515a
p1058
aV\u4ea7
p1059
aV\u5171
p1060
atp1061
sI67
(V\u516d\u56db \u5c60\u6740 \u8d75\u7d2b\u9633
p1062
(lp1063
V\u516d
p1064
aV\u56db
p1065
aV\u5c60
p1066
aV\u6740
p1067
aV\u8d75
p1068
aV\u7d2b
p1069
aV\u9633
p1070
atp1071
sI68
(V\u4e2d\u5171\u4f2a\u653f\u6743
p1072
(lp1073
V\u4e2d
p1074
aV\u5171
p1075
aV\u4f2a
p1076
aV\u653f
p1077
aV\u6743
p1078
atp1079
sI69
(V\u90ed\u4f2f\u96c4
p1080
(lp1081
V\u90ed
p1082
aV\u4f2f
p1083
aV\u96c4
p1084
atp1085
sI70
(V\u80e1\u7d27\u638f
p1086
(lp1087
V\u80e1
p1088
aV\u7d27
p1089
aV\u638f
p1090
atp1091
sI71
(V\u80e1\u66fe\u6c5f\u6076\u6597
p1092
(lp1093
V\u80e1
p1094
aV\u66fe
p1095
aV\u6c5f
p1096
aV\u6076
p1097
aV\u6597
p1098
atp1099
sI72
(Vfreenet
p1100
(lp1101
Vfreenet
p1102
atp1103
sI73
(V\u5218\u5ef6\u4e1c
p1104
(lp1105
V\u5218
p1106
aV\u5ef6
p1107
aV\u4e1c
p1108
atp1109
sI74
(VKEFU
p1110
(lp1111
Vkefu
p1112
atp1113
sI75
(V\u5766\u514b \u738b\u7ef4\u6797 \u516d\u56db
p1114
(lp1115
V\u5766
p1116
aV\u514b
p1117
aV\u738b
p1118
aV\u7ef4
p1119
aV\u6797
p1120
aV\u516d
p1121
aV\u56db
p1122
atp1123
sI76
(V\u5929\u5b89\u95e8\u5b66\u6f6e
p1124
(lp1125
V\u5929
p1126
aV\u5b89
p1127
aV\u95e8
p1128
aV\u5b66
p1129
aV\u6f6e
p1130
atp1131
sI77
(V\u4e5d\u8bc4\u5171\u4ea7\u515a
p1132
(lp1133
V\u4e5d
p1134
aV\u8bc4
p1135
aV\u5171
p1136
aV\u4ea7
p1137
aV\u515a
p1138
atp1139
sI78
(V\u8ffd\u67e5\u56fd\u9645
p1140
(lp1141
V\u8ffd
p1142
aV\u67e5
p1143
aV\u56fd
p1144
aV\u9645
p1145
atp1146
sI79
(V\u97e9\u6b63 \u53d6\u4ee3\u674e\u514b\u5f3a
p1147
(lp1148
V\u97e9
p1149
aV\u6b63
p1150
aV\u53d6
p1151
aV\u4ee3
p1152
aV\u674e
p1153
aV\u514b
p1154
aV\u5f3a
p1155
atp1156
sI80
(V\u6e05\u534e\u5e2e
p1157
(lp1158
V\u6e05
p1159
aV\u534e
p1160
aV\u5e2e
p1161
atp1162
sI81
(V\u516d\u56db \u5b66\u751f \u6c11\u4e3b\u8fd0\u52a8
p1163
(lp1164
V\u516d
p1165
aV\u56db
p1166
aV\u5b66
p1167
aV\u751f
p1168
aV\u6c11
p1169
aV\u4e3b
p1170
aV\u8fd0
p1171
aV\u52a8
p1172
atp1173
sI82
(V\u9ad8\u5b98\u5b50\u5973
p1174
(lp1175
V\u9ad8
p1176
aV\u5b98
p1177
aV\u5b50
p1178
aV\u5973
p1179
atp1180
sI83
(V\u6851\u5fb7\ufffd
p1181
(lp1182
V\u6851
p1183
aV\u5fb7
p1184
aV\ufffd
p1185
atp1186
sI84
(V\u56e2\u6d3e
p1187
(lp1188
V\u56e2
p1189
aV\u6d3e
p1190
atp1191
sI85
(Vfalundafa
p1192
(lp1193
Vfalundafa
p1194
atp1195
sI86
(V\u6d77\u5916\u6c11\u8fd0
p1196
(lp1197
V\u6d77
p1198
aV\u5916
p1199
aV\u6c11
p1200
aV\u8fd0
p1201
atp1202
sI87
(V\u7f62\u5de5
p1203
(lp1204
V\u7f62
p1205
aV\u5de5
p1206
atp1207
sI88
(V\u4e09\u533a\u9769\u547d
p1208
(lp1209
V\u4e09
p1210
aV\u533a
p1211
aV\u9769
p1212
aV\u547d
p1213
atp1214
sI89
(V\u96ea\u5c71\u72ee\u5b50\u65d7
p1215
(lp1216
V\u96ea
p1217
aV\u5c71
p1218
aV\u72ee
p1219
aV\u5b50
p1220
aV\u65d7
p1221
atp1222
sI90
(V\u8840\u8165\u6e05\u573a\u5185\u5e55
p1223
(lp1224
V\u8840
p1225
aV\u8165
p1226
aV\u6e05
p1227
aV\u573a
p1228
aV\u5185
p1229
aV\u5e55
p1230
atp1231
sI91
(V\u68a6\u5e7b\u897f\u6e38\u79c1\u670d
p1232
(lp1233
V\u68a6
p1234
aV\u5e7b
p1235
aV\u897f
p1236
aV\u6e38
p1237
aV\u79c1
p1238
aV\u670d
p1239
atp1240
sI92
(V\u5de6\u4e0d\u8d54
p1241
(lp1242
V\u5de6
p1243
aV\u4e0d
p1244
aV\u8d54
p1245
atp1246
sI93
(V\u7fd2\u5305\u5b50 \u7fd2\u7279\u52d2
p1247
(lp1248
V\u7fd2
p1249
aV\u5305
p1250
aV\u5b50
p1251
aV\u7fd2
p1252
aV\u7279
p1253
aV\u52d2
p1254
atp1255
sI94
(V\u6e29\u7237\u7237
p1256
(lp1257
V\u6e29
p1258
aV\u7237
p1259
aV\u7237
p1260
atp1261
sI95
(V\u062f\u0649\u0646 \u0626\u0649\u0633\u0644\u0627\u0645 \u064a\u0648\u0644\u06cb\u0627\u0633
p1262
(lp1263
V\u062f
p1264
aV\u0649
p1265
aV\u0646
p1266
aV\u0626
p1267
aV\u0649
p1268
aV\u0633
p1269
aV\u0644
p1270
aV\u0627
p1271
aV\u0645
p1272
aV\u064a
p1273
aV\u0648
p1274
aV\u0644
p1275
aV\u06cb
p1276
aV\u0627
p1277
aV\u0633
p1278
atp1279
sI96
(VZHENSHANREN
p1280
(lp1281
Vzhenshanren
p1282
atp1283
sI97
(Vhongzhi
p1284
(lp1285
Vhongzhi
p1286
atp1287
sI98
(V\u7f51\u7ba1\u529e
p1288
(lp1289
V\u7f51
p1290
aV\u7ba1
p1291
aV\u529e
p1292
atp1293
sI99
(VBBC\u4e2d\u6587\u7f51
p1294
(lp1295
Vbbc
p1296
aV\u4e2d
p1297
aV\u6587
p1298
aV\u7f51
p1299
atp1300
sI100
(V\u9ad8\u52e4\u8363
p1301
(lp1302
V\u9ad8
p1303
aV\u52e4
p1304
aV\u8363
p1305
atp1306
sI101
(V\u897f\u85cf\u5c40\u52bf
p1307
(lp1308
V\u897f
p1309
aV\u85cf
p1310
aV\u5c40
p1311
aV\u52bf
p1312
atp1313
sI102
(V\u5f6d\u9ebb\u9ebb \u6697\u9b25\u5b8b\u8cb4\u5983
p1314
(lp1315
V\u5f6d
p1316
aV\u9ebb
p1317
aV\u9ebb
p1318
aV\u6697
p1319
aV\u9b25
p1320
aV\u5b8b
p1321
aV\u8cb4
p1322
aV\u5983
p1323
atp1324
sI103
(V\u9a6c\u7ee7\u6df1
p1325
(lp1326
V\u9a6c
p1327
aV\u7ee7
p1328
aV\u6df1
p1329
atp1330
sI104
(V\u4e2d\u5171 \u8840\u8165\u9547\u538b \u4e13\u5236
p1331
(lp1332
V\u4e2d
p1333
aV\u5171
p1334
aV\u8840
p1335
aV\u8165
p1336
aV\u9547
p1337
aV\u538b
p1338
aV\u4e13
p1339
aV\u5236
p1340
atp1341
sI105
(Vpenis
p1342
(lp1343
Vpenis
p1344
atp1345
sI106
(V\u8001\u6c5f \u6c14\u6740\u4e60\u5927\u5927
p1346
(lp1347
V\u8001
p1348
aV\u6c5f
p1349
aV\u6c14
p1350
aV\u6740
p1351
aV\u4e60
p1352
aV\u5927
p1353
aV\u5927
p1354
atp1355
sI107
(V\u9a6c\u514b\u601d
p1356
(lp1357
V\u9a6c
p1358
aV\u514b
p1359
aV\u601d
p1360
atp1361
sI108
(V\u65b0\u5de6\u6d3e
p1362
(lp1363
V\u65b0
p1364
aV\u5de6
p1365
aV\u6d3e
p1366
atp1367
sI109
(V\u9000\u5171\u515a
p1368
(lp1369
V\u9000
p1370
aV\u5171
p1371
aV\u515a
p1372
atp1373
sI110
(V*\u65b0\u95fb\u7f51
p1374
(lp1375
V\u65b0
p1376
aV\u95fb
p1377
aV\u7f51
p1378
atp1379
sI111
(Vtai du
p1380
(lp1381
Vtai
p1382
aVdu
p1383
atp1384
sI112
(V\u5b8b\u7956\u82f1
p1385
(lp1386
V\u5b8b
p1387
aV\u7956
p1388
aV\u82f1
p1389
atp1390
sI113
(V\u674e\u957f\u6625
p1391
(lp1392
V\u674e
p1393
aV\u957f
p1394
aV\u6625
p1395
atp1396
sI114
(Vcao
p1397
(lp1398
Vcao
p1399
atp1400
sI115
(VSB
p1401
(lp1402
Vsb
p1403
atp1404
sI116
(V64\u4e8b\u4ef6
p1405
(lp1406
V64
p1407
aV\u4e8b
p1408
aV\u4ef6
p1409
atp1410
sI117
(V\u65b0\u6297\u8054
p1411
(lp1412
V\u65b0
p1413
aV\u6297
p1414
aV\u8054
p1415
atp1416
sI118
(V08\u5baa\u7ae0
p1417
(lp1418
V08
p1419
aV\u5baa
p1420
aV\u7ae0
p1421
atp1422
sI119
(Vjiaochun
p1423
(lp1424
Vjiaochun
p1425
atp1426
sI120
(Vwisalstudio com
p1427
(lp1428
Vwisalstudio
p1429
aVcom
p1430
atp1431
sI121
(V\u9093\u77ee\u5b50
p1432
(lp1433
V\u9093
p1434
aV\u77ee
p1435
aV\u5b50
p1436
atp1437
sI122
(V\u81ea\u7531\u897f\u85cf
p1438
(lp1439
V\u81ea
p1440
aV\u7531
p1441
aV\u897f
p1442
aV\u85cf
p1443
atp1444
sI123
(V\u4e70\u624b\u67aa
p1445
(lp1446
V\u4e70
p1447
aV\u624b
p1448
aV\u67aa
p1449
atp1450
sI124
(V\u516d\u56db \u4e2d\u5171 \u4e13\u5236
p1451
(lp1452
V\u516d
p1453
aV\u56db
p1454
aV\u4e2d
p1455
aV\u5171
p1456
aV\u4e13
p1457
aV\u5236
p1458
atp1459
sI125
(Vfuck
p1460
(lp1461
Vfuck
p1462
atp1463
sI126
(V\u65e9\u6cc4
p1464
(lp1465
V\u65e9
p1466
aV\u6cc4
p1467
atp1468
sI127
(V\u4e00\u515a\u72ec\u88c1
p1469
(lp1470
V\u4e00
p1471
aV\u515a
p1472
aV\u72ec
p1473
aV\u88c1
p1474
atp1475
sI128
(V\u5171\u6b8b\u515a
p1476
(lp1477
V\u5171
p1478
aV\u6b8b
p1479
aV\u515a
p1480
atp1481
sI129
(V\u9547\u538b\u5b66\u751f \u6212\u4e25\u90e8\u961f \u5929\u5b89\u95e8\u5e7f\u573a
p1482
(lp1483
V\u9547
p1484
aV\u538b
p1485
aV\u5b66
p1486
aV\u751f
p1487
aV\u6212
p1488
aV\u4e25
p1489
aV\u90e8
p1490
aV\u961f
p1491
aV\u5929
p1492
aV\u5b89
p1493
aV\u95e8
p1494
aV\u5e7f
p1495
aV\u573a
p1496
atp1497
sI130
(V8964 \u5c60\u6740 \u7eaa\u5ff5
p1498
(lp1499
V8964
p1500
aV\u5c60
p1501
aV\u6740
p1502
aV\u7eaa
p1503
aV\u5ff5
p1504
atp1505
sI131
(VCrestbone
p1506
(lp1507
Vcrestbone
p1508
atp1509
sI132
(V\u5929\u5b89\u95e8
p1510
(lp1511
V\u5929
p1512
aV\u5b89
p1513
aV\u95e8
p1514
atp1515
sI133
(V\u9093\u5c0f\u5e73
p1516
(lp1517
V\u9093
p1518
aV\u5c0f
p1519
aV\u5e73
p1520
atp1521
sI134
(Vgcd
p1522
(lp1523
Vgcd
p1524
atp1525
sI135
(VSUCKPENIS
p1526
(lp1527
Vsuckpenis
p1528
atp1529
sI136
(V\u5468\u6c38\u5eb7
p1530
(lp1531
V\u5468
p1532
aV\u6c38
p1533
aV\u5eb7
p1534
atp1535
sI137
(VNeckromancer
p1536
(lp1537
Vneckromancer
p1538
atp1539
sI138
(V\u5587\u561b
p1540
(lp1541
V\u5587
p1542
aV\u561b
p1543
atp1544
sI139
(V\u7f51\u8bc4\u5458
p1545
(lp1546
V\u7f51
p1547
aV\u8bc4
p1548
aV\u5458
p1549
atp1550
sI140
(V89-64cdjp
p1551
(lp1552
V89-64cdjp
p1553
atp1554
sI141
(VZHENGJIANWANG
p1555
(lp1556
Vzhengjianwang
p1557
atp1558
sI142
(V\u516d\u56db\u98ce\u6ce2
p1559
(lp1560
V\u516d
p1561
aV\u56db
p1562
aV\u98ce
p1563
aV\u6ce2
p1564
atp1565
sI143
(V\u8463\u5149\u5cf0
p1566
(lp1567
V\u8463
p1568
aV\u5149
p1569
aV\u5cf0
p1570
atp1571
sI144
(V\u738b\u5b89\u987a
p1572
(lp1573
V\u738b
p1574
aV\u5b89
p1575
aV\u987a
p1576
atp1577
sI145
(V\u81ea\u711a
p1578
(lp1579
V\u81ea
p1580
aV\u711a
p1581
atp1582
sI146
(V\u5218\u6653\u6b66
p1583
(lp1584
V\u5218
p1585
aV\u6653
p1586
aV\u6b66
p1587
atp1588
sI147
(V\u9f50\u9c81\u77f3\u5316
p1589
(lp1590
V\u9f50
p1591
aV\u9c81
p1592
aV\u77f3
p1593
aV\u5316
p1594
atp1595
sI148
(V\u7267\u51fd
p1596
(lp1597
V\u7267
p1598
aV\u51fd
p1599
atp1600
sI149
(V\u9648\u81f3\u7acb
p1601
(lp1602
V\u9648
p1603
aV\u81f3
p1604
aV\u7acb
p1605
atp1606
sI150
(V\u4e2d\u56fd\u65b0\u6c11\u515a
p1607
(lp1608
V\u4e2d
p1609
aV\u56fd
p1610
aV\u65b0
p1611
aV\u6c11
p1612
aV\u515a
p1613
atp1614
sI151
(Vvoachinese
p1615
(lp1616
Vvoachinese
p1617
atp1618
sI152
(V\u4f60\u5988\u95ed
p1619
(lp1620
V\u4f60
p1621
aV\u5988
p1622
aV\u95ed
p1623
atp1624
sI153
(V\u5171\u4ea7\u4e3b\u4e49
p1625
(lp1626
V\u5171
p1627
aV\u4ea7
p1628
aV\u4e3b
p1629
aV\u4e49
p1630
atp1631
sI154
(V\u674e\u514b\u5f3a
p1632
(lp1633
V\u674e
p1634
aV\u514b
p1635
aV\u5f3a
p1636
atp1637
sI155
(V\u4e9a\u6d32\u65f6\u62a5
p1638
(lp1639
V\u4e9a
p1640
aV\u6d32
p1641
aV\u65f6
p1642
aV\u62a5
p1643
atp1644
sI156
(V\u4e2d\u56fd\u81ea\u7531\u515a
p1645
(lp1646
V\u4e2d
p1647
aV\u56fd
p1648
aV\u81ea
p1649
aV\u7531
p1650
aV\u515a
p1651
atp1652
sI157
(V\u4f59\u79cb\u96e8
p1653
(lp1654
V\u4f59
p1655
aV\u79cb
p1656
aV\u96e8
p1657
atp1658
sI158
(V\u516d\u56db\u52a8\u4e71
p1659
(lp1660
V\u516d
p1661
aV\u56db
p1662
aV\u52a8
p1663
aV\u4e71
p1664
atp1665
sI159
(V\u80e1\u54e5
p1666
(lp1667
V\u80e1
p1668
aV\u54e5
p1669
atp1670
sI160
(V\u91d1\u6b6a\u65e5
p1671
(lp1672
V\u91d1
p1673
aV\u6b6a
p1674
aV\u65e5
p1675
atp1676
sI161
(V\u516d\u56db\u5e73\u53cd
p1677
(lp1678
V\u516d
p1679
aV\u56db
p1680
aV\u5e73
p1681
aV\u53cd
p1682
atp1683
sI162
(V\u516b\u4e5d\u8fd0\u52a8
p1684
(lp1685
V\u516b
p1686
aV\u4e5d
p1687
aV\u8fd0
p1688
aV\u52a8
p1689
atp1690
sI163
(V\u6bdb\u592a\u4e0a
p1691
(lp1692
V\u6bdb
p1693
aV\u592a
p1694
aV\u4e0a
p1695
atp1696
sI164
(V\u6253\u5012\u5171\u515a
p1697
(lp1698
V\u6253
p1699
aV\u5012
p1700
aV\u5171
p1701
aV\u515a
p1702
atp1703
sI165
(V\u9000\u9ee8 \u5927\u6f6e
p1704
(lp1705
V\u9000
p1706
aV\u9ee8
p1707
aV\u5927
p1708
aV\u6f6e
p1709
atp1710
sI166
(V\u80e1\u6c5f
p1711
(lp1712
V\u80e1
p1713
aV\u6c5f
p1714
atp1715
sI167
(V\u88e4\u8869\u515a
p1716
(lp1717
V\u88e4
p1718
aV\u8869
p1719
aV\u515a
p1720
atp1721
sI168
(V\u5375\u5b50
p1722
(lp1723
V\u5375
p1724
aV\u5b50
p1725
atp1726
sI169
(V\u6e38\u884c
p1727
(lp1728
V\u6e38
p1729
aV\u884c
p1730
atp1731
sI170
(Vqiangjian
p1732
(lp1733
Vqiangjian
p1734
atp1735
sI171
(V\u5b89\u9b42\u7f51
p1736
(lp1737
V\u5b89
p1738
aV\u9b42
p1739
aV\u7f51
p1740
atp1741
sI172
(V\u516d\u56db\u5927\u5c60\u6bba
p1742
(lp1743
V\u516d
p1744
aV\u56db
p1745
aV\u5927
p1746
aV\u5c60
p1747
aV\u6bba
p1748
atp1749
sI173
(V\u9634\u5507\u88ab\u63d2
p1750
(lp1751
V\u9634
p1752
aV\u5507
p1753
aV\u88ab
p1754
aV\u63d2
p1755
atp1756
sI174
(Vzhuanfalun
p1757
(lp1758
Vzhuanfalun
p1759
atp1760
sI175
(V\u5f00\u67aa \u793a\u5a01 1989\u5e74 \u5929\u5b89\u95e8
p1761
(lp1762
V\u5f00
p1763
aV\u67aa
p1764
aV\u793a
p1765
aV\u5a01
p1766
aV1989
p1767
aV\u5e74
p1768
aV\u5929
p1769
aV\u5b89
p1770
aV\u95e8
p1771
atp1772
sI176
(V\u90aa\u515a \u4e5d\u8bc4
p1773
(lp1774
V\u90aa
p1775
aV\u515a
p1776
aV\u4e5d
p1777
aV\u8bc4
p1778
atp1779
sI177
(V\u6211\u7684\u6700\u540e\u9648\u8ff0 \u8584\u7199\u6765
p1780
(lp1781
V\u6211
p1782
aV\u7684
p1783
aV\u6700
p1784
aV\u540e
p1785
aV\u9648
p1786
aV\u8ff0
p1787
aV\u8584
p1788
aV\u7199
p1789
aV\u6765
p1790
atp1791
sI178
(VTibet free
p1792
(lp1793
Vtibet
p1794
aVfree
p1795
atp1796
sI179
(Vchinaliberal
p1797
(lp1798
Vchinaliberal
p1799
atp1800
sI180
(V15\u65e5\u5b9e\u884cx\u5168\u5e02\u5927\u7f62\u5de5x\u704c\u4e91x\u8fde\u4e91\u6e2f
p1801
(lp1802
V15
p1803
aV\u65e5
p1804
aV\u5b9e
p1805
aV\u884c
p1806
aVx
p1807
aV\u5168
p1808
aV\u5e02
p1809
aV\u5927
p1810
aV\u7f62
p1811
aV\u5de5
p1812
ag1807
aV\u704c
p1813
aV\u4e91
p1814
ag1807
aV\u8fde
p1815
aV\u4e91
p1816
aV\u6e2f
p1817
atp1818
sI181
(V\u90d1\u5b58\u67f1
p1819
(lp1820
V\u90d1
p1821
aV\u5b58
p1822
aV\u67f1
p1823
atp1824
sI182
(V\u516b\u9152\u516d\u56db
p1825
(lp1826
V\u516b
p1827
aV\u9152
p1828
aV\u516d
p1829
aV\u56db
p1830
atp1831
sI183
(V\u51fa\u552e\u67aa\u652f
p1832
(lp1833
V\u51fa
p1834
aV\u552e
p1835
aV\u67aa
p1836
aV\u652f
p1837
atp1838
sI184
(V\u4ee4\u8ba1\u5212
p1839
(lp1840
V\u4ee4
p1841
aV\u8ba1
p1842
aV\u5212
p1843
atp1844
sI185
(V\u8d3a\u56fd\u5f3a
p1845
(lp1846
V\u8d3a
p1847
aV\u56fd
p1848
aV\u5f3a
p1849
atp1850
sI186
(V\u6c11\u8fd0
p1851
(lp1852
V\u6c11
p1853
aV\u8fd0
p1854
atp1855
sI187
(V\u66f9\u521a\u5ddd
p1856
(lp1857
V\u66f9
p1858
aV\u521a
p1859
aV\u5ddd
p1860
atp1861
sI188
(V9\u8bc4\u5171\u4ea7\u515a
p1862
(lp1863
V9
p1864
aV\u8bc4
p1865
aV\u5171
p1866
aV\u4ea7
p1867
aV\u515a
p1868
atp1869
sI189
(V\u6211\u64cd
p1870
(lp1871
V\u6211
p1872
aV\u64cd
p1873
atp1874
sI190
(V\u6e29\u4e91\u677e
p1875
(lp1876
V\u6e29
p1877
aV\u4e91
p1878
aV\u677e
p1879
atp1880
sI191
(VTringel
p1881
(lp1882
Vtringel
p1883
atp1884
sI192
(V\u706d\u4e2d\u5171
p1885
(lp1886
V\u706d
p1887
aV\u4e2d
p1888
aV\u5171
p1889
atp1890
sI193
(V\u516d\u56db \u5b78\u751f \u6c11\u4e3b\u904b\u52d5
p1891
(lp1892
V\u516d
p1893
aV\u56db
p1894
aV\u5b78
p1895
aV\u751f
p1896
aV\u6c11
p1897
aV\u4e3b
p1898
aV\u904b
p1899
aV\u52d5
p1900
atp1901
sI194
(V\u4fde\u6b63\u58f0
p1902
(lp1903
V\u4fde
p1904
aV\u6b63
p1905
aV\u58f0
p1906
atp1907
sI195
(V\u9634\u9053
p1908
(lp1909
V\u9634
p1910
aV\u9053
p1911
atp1912
sI196
(V\u516d\u56db\u4e8b\u4ef6
p1913
(lp1914
V\u516d
p1915
aV\u56db
p1916
aV\u4e8b
p1917
aV\u4ef6
p1918
atp1919
sI197
(V\u5f6d\u9ebb\u9ebb \u6697\u6597\u5b8b\u8d35\u5983
p1920
(lp1921
V\u5f6d
p1922
aV\u9ebb
p1923
aV\u9ebb
p1924
aV\u6697
p1925
aV\u6597
p1926
aV\u5b8b
p1927
aV\u8d35
p1928
aV\u5983
p1929
atp1930
sI198
(V\u81ea\u7531\u4e9e\u6d32\u96fb\u53f0
p1931
(lp1932
V\u81ea
p1933
aV\u7531
p1934
aV\u4e9e
p1935
aV\u6d32
p1936
aV\u96fb
p1937
aV\u53f0
p1938
atp1939
sI199
(V\u8840\u8165 \u5929\u5b89\u95e8
p1940
(lp1941
V\u8840
p1942
aV\u8165
p1943
aV\u5929
p1944
aV\u5b89
p1945
aV\u95e8
p1946
atp1947
sI200
(V\u72ec\u7acb\u897f\u85cf
p1948
(lp1949
V\u72ec
p1950
aV\u7acb
p1951
aV\u897f
p1952
aV\u85cf
p1953
atp1954
sI201
(V\u5341\u4e5d\u5927\u4e89\u593a\u6218
p1955
(lp1956
V\u5341
p1957
aV\u4e5d
p1958
aV\u5927
p1959
aV\u4e89
p1960
aV\u593a
p1961
aV\u6218
p1962
atp1963
sI202
(V\u8d3e\u7532
p1964
(lp1965
V\u8d3e
p1966
aV\u7532
p1967
atp1968
sI203
(Vrenminbao
p1969
(lp1970
Vrenminbao
p1971
atp1972
sI204
(V\u516d\u56db\u8840\u8165\u5c60\u6740
p1973
(lp1974
V\u516d
p1975
aV\u56db
p1976
aV\u8840
p1977
aV\u8165
p1978
aV\u5c60
p1979
aV\u6740
p1980
atp1981
sI205
(V\u6731\ufffd\u57fa
p1982
(lp1983
V\u6731
p1984
aV\ufffd
p1985
aV\u57fa
p1986
atp1987
sI206
(V\u575a\u5b88\u79d1\u5df4\u5c3c \u53d9\u5229\u4e9a
p1988
(lp1989
V\u575a
p1990
aV\u5b88
p1991
aV\u79d1
p1992
aV\u5df4
p1993
aV\u5c3c
p1994
aV\u53d9
p1995
aV\u5229
p1996
aV\u4e9a
p1997
atp1998
sI207
(V\u516d\u56db \u5766\u514b\u4eba \u5b66\u751f
p1999
(lp2000
V\u516d
p2001
aV\u56db
p2002
aV\u5766
p2003
aV\u514b
p2004
aV\u4eba
p2005
aV\u5b66
p2006
aV\u751f
p2007
atp2008
sI208
(V\u9759\u5750
p2009
(lp2010
V\u9759
p2011
aV\u5750
p2012
atp2013
sI209
(V\u80e1\u9526\u6d9b\u63a5\u73ed\u4eba
p2014
(lp2015
V\u80e1
p2016
aV\u9526
p2017
aV\u6d9b
p2018
aV\u63a5
p2019
aV\u73ed
p2020
aV\u4eba
p2021
atp2022
sI210
(V\u8001\u80e1
p2023
(lp2024
V\u8001
p2025
aV\u80e1
p2026
atp2027
sI211
(V\u653f\u6cbb\u8001\u4eba
p2028
(lp2029
V\u653f
p2030
aV\u6cbb
p2031
aV\u8001
p2032
aV\u4eba
p2033
atp2034
sI212
(V\u7f51\u6613sb
p2035
(lp2036
V\u7f51
p2037
aV\u6613
p2038
aVsb
p2039
atp2040
sI213
(V\u9000\u515a \u9000\u56e2 \u9000\u961f
p2041
(lp2042
V\u9000
p2043
aV\u515a
p2044
aV\u9000
p2045
aV\u56e2
p2046
aV\u9000
p2047
aV\u961f
p2048
atp2049
sI214
(V\u674e\u9e4f\u75c5\u91cd
p2050
(lp2051
V\u674e
p2052
aV\u9e4f
p2053
aV\u75c5
p2054
aV\u91cd
p2055
atp2056
sI215
(V\u4e09\u4e2a\u4ee3\u8868
p2057
(lp2058
V\u4e09
p2059
aV\u4e2a
p2060
aV\u4ee3
p2061
aV\u8868
p2062
atp2063
sI216
(V\u4f60\u8001\u6bcd
p2064
(lp2065
V\u4f60
p2066
aV\u8001
p2067
aV\u6bcd
p2068
atp2069
sI217
(V\u5f20\u57f9\u8389
p2070
(lp2071
V\u5f20
p2072
aV\u57f9
p2073
aV\u8389
p2074
atp2075
sI218
(V\u674e\u56fd\u8c05
p2076
(lp2077
V\u674e
p2078
aV\u56fd
p2079
aV\u8c05
p2080
atp2081
sI219
(V\u9ad8\u5b98\u4e92\u8c03
p2082
(lp2083
V\u9ad8
p2084
aV\u5b98
p2085
aV\u4e92
p2086
aV\u8c03
p2087
atp2088
sI220
(V\u8bb0\u5ff5\u516d\u56db
p2089
(lp2090
V\u8bb0
p2091
aV\u5ff5
p2092
aV\u516d
p2093
aV\u56db
p2094
atp2095
sI221
(V\u9886\u5bfc\u65b0\u661f
p2096
(lp2097
V\u9886
p2098
aV\u5bfc
p2099
aV\u65b0
p2100
aV\u661f
p2101
atp2102
sI222
(V\u592a\u5b50\u515a
p2103
(lp2104
V\u592a
p2105
aV\u5b50
p2106
aV\u515a
p2107
atp2108
sI223
(V\u5f6d\u4e3d\u5a9b
p2109
(lp2110
V\u5f6d
p2111
aV\u4e3d
p2112
aV\u5a9b
p2113
atp2114
sI224
(V\u6c5f\u4e3b\u5e2d \u53bb\u4e16
p2115
(lp2116
V\u6c5f
p2117
aV\u4e3b
p2118
aV\u5e2d
p2119
aV\u53bb
p2120
aV\u4e16
p2121
atp2122
sI225
(V\u8001\u6c5f \u6c23\u6bba\u7fd2\u5927\u5927
p2123
(lp2124
V\u8001
p2125
aV\u6c5f
p2126
aV\u6c23
p2127
aV\u6bba
p2128
aV\u7fd2
p2129
aV\u5927
p2130
aV\u5927
p2131
atp2132
sI226
(V\u7f51\u6613SB
p2133
(lp2134
V\u7f51
p2135
aV\u6613
p2136
aVsb
p2137
atp2138
sI227
(V64\u5b66\u8fd0
p2139
(lp2140
V64
p2141
aV\u5b66
p2142
aV\u8fd0
p2143
atp2144
sI228
(V\u597d\u83b1\u575e\u8273\u7167\u95e8\u79cd\u5b50
p2145
(lp2146
V\u597d
p2147
aV\u83b1
p2148
aV\u575e
p2149
aV\u8273
p2150
aV\u7167
p2151
aV\u95e8
p2152
aV\u79cd
p2153
aV\u5b50
p2154
atp2155
sI229
(V\u5510\u5bb6\u7487
p2156
(lp2157
V\u5510
p2158
aV\u5bb6
p2159
aV\u7487
p2160
atp2161
sI230
(V\u80e1\u603b
p2162
(lp2163
V\u80e1
p2164
aV\u603b
p2165
atp2166
sI231
(V\u81ea\u7531\u4e9a\u6d32\u7535\u53f0
p2167
(lp2168
V\u81ea
p2169
aV\u7531
p2170
aV\u4e9a
p2171
aV\u6d32
p2172
aV\u7535
p2173
aV\u53f0
p2174
atp2175
sI232
(V\u5468\u6c38\u5eb7 \u81ea\u8fa9\u4e66
p2176
(lp2177
V\u5468
p2178
aV\u6c38
p2179
aV\u5eb7
p2180
aV\u81ea
p2181
aV\u8fa9
p2182
aV\u4e66
p2183
atp2184
sI233
(V\u738b\u521a
p2185
(lp2186
V\u738b
p2187
aV\u521a
p2188
atp2189
sI234
(V\u5e7f\u573a\u4e0a\u7684\u8840
p2190
(lp2191
V\u5e7f
p2192
aV\u573a
p2193
aV\u4e0a
p2194
aV\u7684
p2195
aV\u8840
p2196
atp2197
sI235
(V\u8681\u529b\u795e
p2198
(lp2199
V\u8681
p2200
aV\u529b
p2201
aV\u795e
p2202
atp2203
sI236
(V\u5171\u4ea7\u515a\u4e0b\u53f0
p2204
(lp2205
V\u5171
p2206
aV\u4ea7
p2207
aV\u515a
p2208
aV\u4e0b
p2209
aV\u53f0
p2210
atp2211
sI237
(V\u5434\u5b98\u6b63
p2212
(lp2213
V\u5434
p2214
aV\u5b98
p2215
aV\u6b63
p2216
atp2217
sI238
(V\u96f6\u516b\u5baa\u7ae0
p2218
(lp2219
V\u96f6
p2220
aV\u516b
p2221
aV\u5baa
p2222
aV\u7ae0
p2223
atp2224
sI239
(V\u738b\u529b\u5229
p2225
(lp2226
V\u738b
p2227
aV\u529b
p2228
aV\u5229
p2229
atp2230
sI240
(V\u65e0\u754c\u7f51\u7edc
p2231
(lp2232
V\u65e0
p2233
aV\u754c
p2234
aV\u7f51
p2235
aV\u7edc
p2236
atp2237
sI241
(V\u9633\u75ff
p2238
(lp2239
V\u9633
p2240
aV\u75ff
p2241
atp2242
sI242
(V\u80e1\u7cfb\u4eba\u9a6c
p2243
(lp2244
V\u80e1
p2245
aV\u7cfb
p2246
aV\u4eba
p2247
aV\u9a6c
p2248
atp2249
sI243
(Vnacb
p2250
(lp2251
Vnacb
p2252
atp2253
sI244
(V\u4e60\u8fd1\u5e73
p2254
(lp2255
V\u4e60
p2256
aV\u8fd1
p2257
aV\u5e73
p2258
atp2259
sI245
(V\u5e73\u53cd64
p2260
(lp2261
V\u5e73
p2262
aV\u53cd
p2263
aV64
p2264
atp2265
sI246
(V\u7f62\u9910
p2266
(lp2267
V\u7f62
p2268
aV\u9910
p2269
atp2270
sI247
(V\u5929\u5b89\u95e8\u98ce\u6ce2
p2271
(lp2272
V\u5929
p2273
aV\u5b89
p2274
aV\u95e8
p2275
aV\u98ce
p2276
aV\u6ce2
p2277
atp2278
sI248
(V\u70b8\u5f39\u5236\u9020
p2279
(lp2280
V\u70b8
p2281
aV\u5f39
p2282
aV\u5236
p2283
aV\u9020
p2284
atp2285
sI249
(V\u516d\u56db\u65e5\u8a18
p2286
(lp2287
V\u516d
p2288
aV\u56db
p2289
aV\u65e5
p2290
aV\u8a18
p2291
atp2292
sI250
(V\u4e2d\u671d\u7ffb\u8138
p2293
(lp2294
V\u4e2d
p2295
aV\u671d
p2296
aV\u7ffb
p2297
aV\u8138
p2298
atp2299
sI251
(Vminghuinews
p2300
(lp2301
Vminghuinews
p2302
atp2303
sI252
(V\u8305\u5395\u6d1e
p2304
(lp2305
V\u8305
p2306
aV\u5395
p2307
aV\u6d1e
p2308
atp2309
sI253
(V\u65b9\u5bff\u4f1f
p2310
(lp2311
V\u65b9
p2312
aV\u5bff
p2313
aV\u4f1f
p2314
atp2315
sI254
(V\u6c5f\u6cfd\u6c11 \u6b7b\u4e86
p2316
(lp2317
V\u6c5f
p2318
aV\u6cfd
p2319
aV\u6c11
p2320
aV\u6b7b
p2321
aV\u4e86
p2322
atp2323
sI255
(V\u516d\u56db \u8840\u8165 \u93ae\u58d3
p2324
(lp2325
V\u516d
p2326
aV\u56db
p2327
aV\u8840
p2328
aV\u8165
p2329
aV\u93ae
p2330
aV\u58d3
p2331
atp2332
sI256
(V\u63ed\u9732\u4e2d\u5171
p2333
(lp2334
V\u63ed
p2335
aV\u9732
p2336
aV\u4e2d
p2337
aV\u5171
p2338
atp2339
sI257
(V\u674e\u73b0\u539f
p2340
(lp2341
V\u674e
p2342
aV\u73b0
p2343
aV\u539f
p2344
atp2345
sI258
(V\u4e0a\u6d77\u5e2e
p2346
(lp2347
V\u4e0a
p2348
aV\u6d77
p2349
aV\u5e2e
p2350
atp2351
sI259
(V\u80e1\u6d77\u5cf0
p2352
(lp2353
V\u80e1
p2354
aV\u6d77
p2355
aV\u5cf0
p2356
atp2357
sI260
(V\u8881\u9e70
p2358
(lp2359
V\u8881
p2360
aV\u9e70
p2361
atp2362
sI261
(V\u9000\u51fa\u4e2d\u5171
p2363
(lp2364
V\u9000
p2365
aV\u51fa
p2366
aV\u4e2d
p2367
aV\u5171
p2368
atp2369
sI262
(V\u5218\u4e9a\u6d32
p2370
(lp2371
V\u5218
p2372
aV\u4e9a
p2373
aV\u6d32
p2374
atp2375
sI263
(V\u5171\u94f2\u515a
p2376
(lp2377
V\u5171
p2378
aV\u94f2
p2379
aV\u515a
p2380
atp2381
sI264
(V\u93ae\u58d3\u5b78\u751f \u6212\u56b4\u90e8\u968a \u5929\u5b89\u9580\u5ee3\u5834
p2382
(lp2383
V\u93ae
p2384
aV\u58d3
p2385
aV\u5b78
p2386
aV\u751f
p2387
aV\u6212
p2388
aV\u56b4
p2389
aV\u90e8
p2390
aV\u968a
p2391
aV\u5929
p2392
aV\u5b89
p2393
aV\u9580
p2394
aV\u5ee3
p2395
aV\u5834
p2396
atp2397
sI265
(V\u66b4\u52a8
p2398
(lp2399
V\u66b4
p2400
aV\u52a8
p2401
atp2402
sI266
(V\u516d\u56db\u7eaa\u5ff5 \u7ef4\u56ed
p2403
(lp2404
V\u516d
p2405
aV\u56db
p2406
aV\u7eaa
p2407
aV\u5ff5
p2408
aV\u7ef4
p2409
aV\u56ed
p2410
atp2411
sI267
(V\u6cd5\u8f6e\u529f
p2412
(lp2413
V\u6cd5
p2414
aV\u8f6e
p2415
aV\u529f
p2416
atp2417
sI268
(VClockgemstone
p2418
(lp2419
Vclockgemstone
p2420
atp2421
sI269
(V\u516d\u56db \u8d75\u7d2b\u9633 \u5766\u514b
p2422
(lp2423
V\u516d
p2424
aV\u56db
p2425
aV\u8d75
p2426
aV\u7d2b
p2427
aV\u9633
p2428
aV\u5766
p2429
aV\u514b
p2430
atp2431
sI270
(V\u4e60\u8fd1\u5e73\u9635\u8425 \u6c5f\u6d3e
p2432
(lp2433
V\u4e60
p2434
aV\u8fd1
p2435
aV\u5e73
p2436
aV\u9635
p2437
aV\u8425
p2438
aV\u6c5f
p2439
aV\u6d3e
p2440
atp2441
sI271
(Vfalun
p2442
(lp2443
Vfalun
p2444
atp2445
sI272
(V1989 \u5c60\u6740 \u5929\u5b89\u95e8\u5e7f\u573a
p2446
(lp2447
V1989
p2448
aV\u5c60
p2449
aV\u6740
p2450
aV\u5929
p2451
aV\u5b89
p2452
aV\u95e8
p2453
aV\u5e7f
p2454
aV\u573a
p2455
atp2456
sI273
(V\u80e1\u6e29\u6838\u5fc3
p2457
(lp2458
V\u80e1
p2459
aV\u6e29
p2460
aV\u6838
p2461
aV\u5fc3
p2462
atp2463
sI274
(V\u4e5d\u8bc4
p2464
(lp2465
V\u4e5d
p2466
aV\u8bc4
p2467
atp2468
sI275
(V\u516d\u56db\u5b66\u751f\u9886\u8896
p2469
(lp2470
V\u516d
p2471
aV\u56db
p2472
aV\u5b66
p2473
aV\u751f
p2474
aV\u9886
p2475
aV\u8896
p2476
atp2477
sI276
(Vlihongzhi
p2478
(lp2479
Vlihongzhi
p2480
atp2481
sI277
(V\u5386\u53f2\u7684\u4f24\u53e3 8964
p2482
(lp2483
V\u5386
p2484
aV\u53f2
p2485
aV\u7684
p2486
aV\u4f24
p2487
aV\u53e3
p2488
aV8964
p2489
atp2490
sI278
(VSHIT
p2491
(lp2492
Vshit
p2493
atp2494
sI279
(V\u634c\u7396
p2495
(lp2496
V\u634c
p2497
aV\u7396
p2498
atp2499
sI280
(V\u674e\u514b\u5f3a\u63a5\u73ed
p2500
(lp2501
V\u674e
p2502
aV\u514b
p2503
aV\u5f3a
p2504
aV\u63a5
p2505
aV\u73ed
p2506
atp2507
sI281
(V\u516d\u56db \u5c60\u6bba \u8d99\u7d2b\u967d
p2508
(lp2509
V\u516d
p2510
aV\u56db
p2511
aV\u5c60
p2512
aV\u6bba
p2513
aV\u8d99
p2514
aV\u7d2b
p2515
aV\u967d
p2516
atp2517
sI282
(V\u516b\u4e5d\u516d\u56db
p2518
(lp2519
V\u516b
p2520
aV\u4e5d
p2521
aV\u516d
p2522
aV\u56db
p2523
atp2524
sI283
(V\u9526\u6d9b
p2525
(lp2526
V\u9526
p2527
aV\u6d9b
p2528
atp2529
sI284
(V\u516d\u56db \u65b9\u52b1\u4e4b
p2530
(lp2531
V\u516d
p2532
aV\u56db
p2533
aV\u65b9
p2534
aV\u52b1
p2535
aV\u4e4b
p2536
atp2537
sI285
(V\u4e60\u592a\u4e0a
p2538
(lp2539
V\u4e60
p2540
aV\u592a
p2541
aV\u4e0a
p2542
atp2543
sI286
(V\u65b0\u8700\u5c71
p2544
(lp2545
V\u65b0
p2546
aV\u8700
p2547
aV\u5c71
p2548
atp2549
sI287
(V\u5fd7\u613f\u5175
p2550
(lp2551
V\u5fd7
p2552
aV\u613f
p2553
aV\u5175
p2554
atp2555
sI288
(V\u516d\u56db \u5766\u514b \u5c60\u57ce
p2556
(lp2557
V\u516d
p2558
aV\u56db
p2559
aV\u5766
p2560
aV\u514b
p2561
aV\u5c60
p2562
aV\u57ce
p2563
atp2564
sI289
(Vwangce
p2565
(lp2566
Vwangce
p2567
atp2568
sI290
(Vustibet
p2569
(lp2570
Vustibet
p2571
atp2572
sI291
(V\u666f\u6d9b
p2573
(lp2574
V\u666f
p2575
aV\u6d9b
p2576
atp2577
sI292
(V\u6cd5lun\u529f
p2578
(lp2579
V\u6cd5
p2580
aVlun
p2581
aV\u529f
p2582
atp2583
sI293
(V\u534e\u5efa\u654f
p2584
(lp2585
V\u534e
p2586
aV\u5efa
p2587
aV\u654f
p2588
atp2589
sI294
(V\u5e7f\u573a\u4e0a\u7684\u70ed\u8840
p2590
(lp2591
V\u5e7f
p2592
aV\u573a
p2593
aV\u4e0a
p2594
aV\u7684
p2595
aV\u70ed
p2596
aV\u8840
p2597
atp2598
sI295
(V\u56e2\u6d3e\u4eba\u9a6c
p2599
(lp2600
V\u56e2
p2601
aV\u6d3e
p2602
aV\u4eba
p2603
aV\u9a6c
p2604
atp2605
sI296
(V\u56de\u6c49\u7ea0\u7eb7
p2606
(lp2607
V\u56de
p2608
aV\u6c49
p2609
aV\u7ea0
p2610
aV\u7eb7
p2611
atp2612
sI297
(V\u9ad8\u5fd7\u665f
p2613
(lp2614
V\u9ad8
p2615
aV\u5fd7
p2616
aV\u665f
p2617
atp2618
sI298
(V\u516d\u56db \u9547\u538b \u5b66\u751f
p2619
(lp2620
V\u516d
p2621
aV\u56db
p2622
aV\u9547
p2623
aV\u538b
p2624
aV\u5b66
p2625
aV\u751f
p2626
atp2627
sI299
(VAdministrator
p2628
(lp2629
Vadministrator
p2630
atp2631
sI300
(Vtibetalk
p2632
(lp2633
Vtibetalk
p2634
atp2635
sI301
(V\u6c5f\u4e3b\u5e2d \u6b7b
p2636
(lp2637
V\u6c5f
p2638
aV\u4e3b
p2639
aV\u5e2d
p2640
aV\u6b7b
p2641
atp2642
sI302
(Vasshole
p2643
(lp2644
Vasshole
p2645
atp2646
sI303
(V\u5b8b\u5e73
p2647
(lp2648
V\u5b8b
p2649
aV\u5e73
p2650
atp2651
sI304
(V\u80e1\u6e29
p2652
(lp2653
V\u80e1
p2654
aV\u6e29
p2655
atp2656
sI305
(V\u4e2d\u5171\u66b4\u653f
p2657
(lp2658
V\u4e2d
p2659
aV\u5171
p2660
aV\u66b4
p2661
aV\u653f
p2662
atp2663
sI306
(V\u516d\u56db \u8840\u6848 \u9093\u5c0f\u5e73
p2664
(lp2665
V\u516d
p2666
aV\u56db
p2667
aV\u8840
p2668
aV\u6848
p2669
aV\u9093
p2670
aV\u5c0f
p2671
aV\u5e73
p2672
atp2673
sI307
(Vkao
p2674
(lp2675
Vkao
p2676
atp2677
sI308
(VPAPER64
p2678
(lp2679
Vpaper64
p2680
atp2681
sI309
(V\u5230\u5e02\u653f\u5e9c\u8bf7\u613f
p2682
(lp2683
V\u5230
p2684
aV\u5e02
p2685
aV\u653f
p2686
aV\u5e9c
p2687
aV\u8bf7
p2688
aV\u613f
p2689
atp2690
sI310
(V\u7f62\u996d
p2691
(lp2692
V\u7f62
p2693
aV\u996d
p2694
atp2695
sI311
(V\u6d3b\u6458\u5668\u5b98
p2696
(lp2697
V\u6d3b
p2698
aV\u6458
p2699
aV\u5668
p2700
aV\u5b98
p2701
atp2702
sI312
(V\u63a8\u7ffb\u5171\u4ea7\u515a
p2703
(lp2704
V\u63a8
p2705
aV\u7ffb
p2706
aV\u5171
p2707
aV\u4ea7
p2708
aV\u515a
p2709
atp2710
sI313
(V\u6c5f\u6fa4\u6c11 \u6b7b\u4e86
p2711
(lp2712
V\u6c5f
p2713
aV\u6fa4
p2714
aV\u6c11
p2715
aV\u6b7b
p2716
aV\u4e86
p2717
atp2718
sI314
(VDICK
p2719
(lp2720
Vdick
p2721
atp2722
sI315
(V\u6d88\u706d\u5171\u4ea7\u515a
p2723
(lp2724
V\u6d88
p2725
aV\u706d
p2726
aV\u5171
p2727
aV\u4ea7
p2728
aV\u515a
p2729
atp2730
sI316
(V\u70b8\u6389\u8bc1\u76d1\u4f1a
p2731
(lp2732
V\u70b8
p2733
aV\u6389
p2734
aV\u8bc1
p2735
aV\u76d1
p2736
aV\u4f1a
p2737
atp2738
sI317
(V\u6cd5\u8f2a\u5927\u6cd5
p2739
(lp2740
V\u6cd5
p2741
aV\u8f2a
p2742
aV\u5927
p2743
aV\u6cd5
p2744
atp2745
sI318
(V\u80e1\u6d77\u6e05
p2746
(lp2747
V\u80e1
p2748
aV\u6d77
p2749
aV\u6e05
p2750
atp2751
sI319
(V\u5341\u4e03\u5927
p2752
(lp2753
V\u5341
p2754
aV\u4e03
p2755
aV\u5927
p2756
atp2757
sI320
(V\u516d\u56db\u7d00\u5ff5\u9928
p2758
(lp2759
V\u516d
p2760
aV\u56db
p2761
aV\u7d00
p2762
aV\u5ff5
p2763
aV\u9928
p2764
atp2765
sI321
(V\u81ea\u6551\u4f1a
p2766
(lp2767
V\u81ea
p2768
aV\u6551
p2769
aV\u4f1a
p2770
atp2771
sI322
(V\u79e6\u900a\u8f89
p2772
(lp2773
V\u79e6
p2774
aV\u900a
p2775
aV\u8f89
p2776
atp2777
sI323
(V\u516d\u8086
p2778
(lp2779
V\u516d
p2780
aV\u8086
p2781
atp2782
sI324
(V\u4e00\u515a\u4e13\u653f
p2783
(lp2784
V\u4e00
p2785
aV\u515a
p2786
aV\u4e13
p2787
aV\u653f
p2788
atp2789
sI325
(V\u516d\u56db \u5929\u5b89\u95e8\u5e7f\u573a
p2790
(lp2791
V\u516d
p2792
aV\u56db
p2793
aV\u5929
p2794
aV\u5b89
p2795
aV\u95e8
p2796
aV\u5e7f
p2797
aV\u573a
p2798
atp2799
sI326
(V\u516d\u56db \u8d75\u7d2b\u9633 \u9547\u538b
p2800
(lp2801
V\u516d
p2802
aV\u56db
p2803
aV\u8d75
p2804
aV\u7d2b
p2805
aV\u9633
p2806
aV\u9547
p2807
aV\u538b
p2808
atp2809
sI327
(V\u7f51\u6c11\u515a
p2810
(lp2811
V\u7f51
p2812
aV\u6c11
p2813
aV\u515a
p2814
atp2815
sI328
(V\u5f20\u9633\u5fb7
p2816
(lp2817
V\u5f20
p2818
aV\u9633
p2819
aV\u5fb7
p2820
atp2821
sI329
(V\u8bb8\u5bb6\u5c6f \u516d\u56db
p2822
(lp2823
V\u8bb8
p2824
aV\u5bb6
p2825
aV\u5c6f
p2826
aV\u516d
p2827
aV\u56db
p2828
atp2829
sI330
(V\u5929\u5b89\u95e8\u60c5\u4eba
p2830
(lp2831
V\u5929
p2832
aV\u5b89
p2833
aV\u95e8
p2834
aV\u60c5
p2835
aV\u4eba
p2836
atp2837
sI331
(V\u91ca\u6e05\u6d77
p2838
(lp2839
V\u91ca
p2840
aV\u6e05
p2841
aV\u6d77
p2842
atp2843
sI332
(V\u60bc\u5ff5 \u7ef4\u56ed \u516d\u56db
p2844
(lp2845
V\u60bc
p2846
aV\u5ff5
p2847
aV\u7ef4
p2848
aV\u56ed
p2849
aV\u516d
p2850
aV\u56db
p2851
atp2852
sI333
(V\u6c5f\u7aef\u4eea
p2853
(lp2854
V\u6c5f
p2855
aV\u7aef
p2856
aV\u4eea
p2857
atp2858
sI334
(Vzangdu
p2859
(lp2860
Vzangdu
p2861
atp2862
sI335
(V\u516d\u56db\u7d00\u5ff5 \u7dad\u5712
p2863
(lp2864
V\u516d
p2865
aV\u56db
p2866
aV\u7d00
p2867
aV\u5ff5
p2868
aV\u7dad
p2869
aV\u5712
p2870
atp2871
sI336
(VWEBZEN
p2872
(lp2873
Vwebzen
p2874
atp2875
sI337
(V6-4tianwang
p2876
(lp2877
V6-4tianwang
p2878
atp2879
sI338
(V\u5929\u5b89\u95e8\u9547\u538b
p2880
(lp2881
V\u5929
p2882
aV\u5b89
p2883
aV\u95e8
p2884
aV\u9547
p2885
aV\u538b
p2886
atp2887
sI339
(Vtriangle
p2888
(lp2889
Vtriangle
p2890
atp2891
sI340
(V\u516d\u56db \u7eaa\u5ff5 \u738b\u4e39
p2892
(lp2893
V\u516d
p2894
aV\u56db
p2895
aV\u7eaa
p2896
aV\u5ff5
p2897
aV\u738b
p2898
aV\u4e39
p2899
atp2900
sI341
(Vdfdz
p2901
(lp2902
Vdfdz
p2903
atp2904
sI342
(V\u9648\u826f\u5b87
p2905
(lp2906
V\u9648
p2907
aV\u826f
p2908
aV\u5b87
p2909
atp2910
sI343
(V\u90ed\u6cc9
p2911
(lp2912
V\u90ed
p2913
aV\u6cc9
p2914
atp2915
sI344
(V\u63a8\u7ffb\u4e2d\u5171
p2916
(lp2917
V\u63a8
p2918
aV\u7ffb
p2919
aV\u4e2d
p2920
aV\u5171
p2921
atp2922
sI345
(V\u4e60\u7981\u8bc4
p2923
(lp2924
V\u4e60
p2925
aV\u7981
p2926
aV\u8bc4
p2927
atp2928
sI346
(V\u5f53\u4ee3\u516b\u4e71
p2929
(lp2930
V\u5f53
p2931
aV\u4ee3
p2932
aV\u516b
p2933
aV\u4e71
p2934
atp2935
sI347
(V\u6253\u5012\u4e2d\u56fd\u5171\u4ea7\u515a
p2936
(lp2937
V\u6253
p2938
aV\u5012
p2939
aV\u4e2d
p2940
aV\u56fd
p2941
aV\u5171
p2942
aV\u4ea7
p2943
aV\u515a
p2944
atp2945
sI348
(V\u516d\u56db\u5b66\u6f6e
p2946
(lp2947
V\u516d
p2948
aV\u56db
p2949
aV\u5b66
p2950
aV\u6f6e
p2951
atp2952
sI349
(V\u0626\u0649\u0633\u0644\u0627\u0645 \u0626\u0627\u06cb\u0627\u0632\u0649
p2953
(lp2954
V\u0626
p2955
aV\u0649
p2956
aV\u0633
p2957
aV\u0644
p2958
aV\u0627
p2959
aV\u0645
p2960
aV\u0626
p2961
aV\u0627
p2962
aV\u06cb
p2963
aV\u0627
p2964
aV\u0632
p2965
aV\u0649
p2966
atp2967
sI350
(VKISSMYASS
p2968
(lp2969
Vkissmyass
p2970
atp2971
sI351
(V\u8fbd\u5b81\u5e2e
p2972
(lp2973
V\u8fbd
p2974
aV\u5b81
p2975
aV\u5e2e
p2976
atp2977
sI352
(V\u9ad8\u5b98\u6325\u970d\u516c\u6b3e
p2978
(lp2979
V\u9ad8
p2980
aV\u5b98
p2981
aV\u6325
p2982
aV\u970d
p2983
aV\u516c
p2984
aV\u6b3e
p2985
atp2986
sI353
(V\u516b\u4e5d\u6c11\u8fd0
p2987
(lp2988
V\u516b
p2989
aV\u4e5d
p2990
aV\u6c11
p2991
aV\u8fd0
p2992
atp2993
sI354
(V\u6212\u4e25
p2994
(lp2995
V\u6212
p2996
aV\u4e25
p2997
atp2998
sI355
(V\u5434\u5411\u5fe0
p2999
(lp3000
V\u5434
p3001
aV\u5411
p3002
aV\u5fe0
p3003
atp3004
sI356
(V\u85cf\u9752\u4f1a
p3005
(lp3006
V\u85cf
p3007
aV\u9752
p3008
aV\u4f1a
p3009
atp3010
sI357
(V\u53c2\u653f\u4f20\u5947
p3011
(lp3012
V\u53c2
p3013
aV\u653f
p3014
aV\u4f20
p3015
aV\u5947
p3016
atp3017
sI358
(V\u81ea\u7531\u5723\u706b
p3018
(lp3019
V\u81ea
p3020
aV\u7531
p3021
aV\u5723
p3022
aV\u706b
p3023
atp3024
sI359
(V\u64cd\u4f60\u5988
p3025
(lp3026
V\u64cd
p3027
aV\u4f60
p3028
aV\u5988
p3029
atp3030
sI360
(V\u6574\u8083\u5b98\u573a
p3031
(lp3032
V\u6574
p3033
aV\u8083
p3034
aV\u5b98
p3035
aV\u573a
p3036
atp3037
sI361
(V\u5927\u7d00\u5143
p3038
(lp3039
V\u5927
p3040
aV\u7d00
p3041
aV\u5143
p3042
atp3043
sI362
(V\u64cd\u5973\u4eba\u7a74
p3044
(lp3045
V\u64cd
p3046
aV\u5973
p3047
aV\u4eba
p3048
aV\u7a74
p3049
atp3050
sI363
(V89\u5e74 \u5b66\u6f6e \u9547\u538b
p3051
(lp3052
V89
p3053
aV\u5e74
p3054
aV\u5b66
p3055
aV\u6f6e
p3056
aV\u9547
p3057
aV\u538b
p3058
atp3059
sI364
(V\u5468\u540d\u519b
p3060
(lp3061
V\u5468
p3062
aV\u540d
p3063
aV\u519b
p3064
atp3065
sI365
(V\u80e1\u6e29\u653f\u4f53
p3066
(lp3067
V\u80e1
p3068
aV\u6e29
p3069
aV\u653f
p3070
aV\u4f53
p3071
atp3072
sI366
(VGruepin
p3073
(lp3074
Vgruepin
p3075
atp3076
sI367
(Vchinesenewsnet
p3077
(lp3078
Vchinesenewsnet
p3079
atp3080
sI368
(V\u516d\u56db\u6212\u4e25\u90e8\u961f
p3081
(lp3082
V\u516d
p3083
aV\u56db
p3084
aV\u6212
p3085
aV\u4e25
p3086
aV\u90e8
p3087
aV\u961f
p3088
atp3089
sI369
(V\u897f\u85cf
p3090
(lp3091
V\u897f
p3092
aV\u85cf
p3093
atp3094
sI370
(V\u5b98\u573a\u65e5\u5fd7
p3095
(lp3096
V\u5b98
p3097
aV\u573a
p3098
aV\u65e5
p3099
aV\u5fd7
p3100
atp3101
sI371
(V\u516d\u56db\u5927\u5c60\u6740
p3102
(lp3103
V\u516d
p3104
aV\u56db
p3105
aV\u5927
p3106
aV\u5c60
p3107
aV\u6740
p3108
atp3109
sI372
(V\u4e2d\u5171
p3110
(lp3111
V\u4e2d
p3112
aV\u5171
p3113
atp3114
sI373
(V\u9646\u8086
p3115
(lp3116
V\u9646
p3117
aV\u8086
p3118
atp3119
sI374
(V\u85cf\u72ec
p3120
(lp3121
V\u85cf
p3122
aV\u72ec
p3123
atp3124
sI375
(V\u4e60\u6838\u5fc3
p3125
(lp3126
V\u4e60
p3127
aV\u6838
p3128
aV\u5fc3
p3129
atp3130
sI376
(V\u9ad8\u5e72\u5b50\u5f1f\u540d\u5355
p3131
(lp3132
V\u9ad8
p3133
aV\u5e72
p3134
aV\u5b50
p3135
aV\u5f1f
p3136
aV\u540d
p3137
aV\u5355
p3138
atp3139
sI377
(V\u591a\u7ef4\u65b0\u95fb
p3140
(lp3141
V\u591a
p3142
aV\u7ef4
p3143
aV\u65b0
p3144
aV\u95fb
p3145
atp3146
sI378
(V\u516d\u56db\u4e8b\u4ef6 \u9093\u5c0f\u5e73
p3147
(lp3148
V\u516d
p3149
aV\u56db
p3150
aV\u4e8b
p3151
aV\u4ef6
p3152
aV\u9093
p3153
aV\u5c0f
p3154
aV\u5e73
p3155
atp3156
sI379
(V\u516d\u56db\u8fd0\u52a8
p3157
(lp3158
V\u516d
p3159
aV\u56db
p3160
aV\u8fd0
p3161
aV\u52a8
p3162
atp3163
sI380
(V\u80e1\u6e29\u653f\u6cbb
p3164
(lp3165
V\u80e1
p3166
aV\u6e29
p3167
aV\u653f
p3168
aV\u6cbb
p3169
atp3170
sI381
(VZHENGJIAN
p3171
(lp3172
Vzhengjian
p3173
atp3174
sI382
(Vwstaiji
p3175
(lp3176
Vwstaiji
p3177
atp3178
sI383
(V\u7ef4\u6743
p3179
(lp3180
V\u7ef4
p3181
aV\u6743
p3182
atp3183
sI384
(V\u4fdd\u9493
p3184
(lp3185
V\u4fdd
p3186
aV\u9493
p3187
atp3188
sI385
(V89\u4e8b\u4ef6
p3189
(lp3190
V89
p3191
aV\u4e8b
p3192
aV\u4ef6
p3193
atp3194
sI386
(V\u66fe\u57f9\u708e
p3195
(lp3196
V\u66fe
p3197
aV\u57f9
p3198
aV\u708e
p3199
atp3200
sI387
(V\u7edd\u98df
p3201
(lp3202
V\u7edd
p3203
aV\u98df
p3204
atp3205
sI388
(V\u738b\u4e39
p3206
(lp3207
V\u738b
p3208
aV\u4e39
p3209
atp3210
sI389
(Vincest
p3211
(lp3212
Vincest
p3213
atp3214
sI390
(V\u4e2d\u5171\u4e0b\u53f0
p3215
(lp3216
V\u4e2d
p3217
aV\u5171
p3218
aV\u4e0b
p3219
aV\u53f0
p3220
atp3221
sI391
(V\u5341\u4e8c\u4e2a\u6625\u79cb
p3222
(lp3223
V\u5341
p3224
aV\u4e8c
p3225
aV\u4e2a
p3226
aV\u6625
p3227
aV\u79cb
p3228
atp3229
sI392
(V\u5f20\u5fb7\u6c5f
p3230
(lp3231
V\u5f20
p3232
aV\u5fb7
p3233
aV\u6c5f
p3234
atp3235
sI393
(V\u4f60\u5988B
p3236
(lp3237
V\u4f60
p3238
aV\u5988
p3239
aVb
p3240
atp3241
sI394
(V\u9648\u4e00\u6587
p3242
(lp3243
V\u9648
p3244
aV\u4e00
p3245
aV\u6587
p3246
atp3247
sI395
(V\u516d\u56db \u4e2d\u5171 \u6b66\u529b\u9547\u538b
p3248
(lp3249
V\u516d
p3250
aV\u56db
p3251
aV\u4e2d
p3252
aV\u5171
p3253
aV\u6b66
p3254
aV\u529b
p3255
aV\u9547
p3256
aV\u538b
p3257
atp3258
sI396
(V\u63a8\u7ffb\u4e2d\u56fd\u5171\u4ea7\u515a
p3259
(lp3260
V\u63a8
p3261
aV\u7ffb
p3262
aV\u4e2d
p3263
aV\u56fd
p3264
aV\u5171
p3265
aV\u4ea7
p3266
aV\u515a
p3267
atp3268
sI397
(V\u5171\u4ea7\u515a
p3269
(lp3270
V\u5171
p3271
aV\u4ea7
p3272
aV\u515a
p3273
atp3274
sI398
(V\u80e1\u66fe\u8054\u624b
p3275
(lp3276
V\u80e1
p3277
aV\u66fe
p3278
aV\u8054
p3279
aV\u624b
p3280
atp3281
sI399
(V\u4e60\u5305\u5b50 \u4e60\u7279\u52d2
p3282
(lp3283
V\u4e60
p3284
aV\u5305
p3285
aV\u5b50
p3286
aV\u4e60
p3287
aV\u7279
p3288
aV\u52d2
p3289
atp3290
sI400
(Vcreaders
p3291
(lp3292
Vcreaders
p3293
atp3294
sI401
(V\u6c5f\u7ef5\u6052
p3295
(lp3296
V\u6c5f
p3297
aV\u7ef5
p3298
aV\u6052
p3299
atp3300
sI402
(VYUMING
p3301
(lp3302
Vyuming
p3303
atp3304
sI403
(V\u0628\u0648\u0644\u06c7 \u0634\u06d5\u06be\u0649\u062f
p3305
(lp3306
V\u0628
p3307
aV\u0648
p3308
aV\u0644
p3309
aV\u06c7
p3310
aV\u0634
p3311
aV\u06d5
p3312
aV\u06be
p3313
aV\u0649
p3314
aV\u062f
p3315
atp3316
sI404
(VHUANET
p3317
(lp3318
Vhuanet
p3319
atp3320
sI405
(V\u6587\u8fbe\u5b66
p3321
(lp3322
V\u6587
p3323
aV\u8fbe
p3324
aV\u5b66
p3325
atp3326
sI406
(V610\u529e\u516c\u5ba4
p3327
(lp3328
V610
p3329
aV\u529e
p3330
aV\u516c
p3331
aV\u5ba4
p3332
atp3333
sI407
(VGuichuideng
p3334
(lp3335
Vguichuideng
p3336
atp3337
sI408
(V\u5929\u5b89\u95e8\u5c60\u6740
p3338
(lp3339
V\u5929
p3340
aV\u5b89
p3341
aV\u95e8
p3342
aV\u5c60
p3343
aV\u6740
p3344
atp3345
sI409
(V\u80e1\u66fe\u5408\u4f5c
p3346
(lp3347
V\u80e1
p3348
aV\u66fe
p3349
aV\u5408
p3350
aV\u4f5c
p3351
atp3352
sI410
(V\u963f\u6ce2\u7f57\u7f51
p3353
(lp3354
V\u963f
p3355
aV\u6ce2
p3356
aV\u7f57
p3357
aV\u7f51
p3358
atp3359
sI411
(V\u5171\u8d2a\u515a
p3360
(lp3361
V\u5171
p3362
aV\u8d2a
p3363
aV\u515a
p3364
atp3365
sI412
(V\u516b\u4e5d\u6c11\u904b
p3366
(lp3367
V\u516b
p3368
aV\u4e5d
p3369
aV\u6c11
p3370
aV\u904b
p3371
atp3372
sI413
(V\u674e\u9e4f \u7edd\u98df\u7684\u5b66\u751f \u5929\u5b89\u95e8\u5e7f\u573a
p3373
(lp3374
V\u674e
p3375
aV\u9e4f
p3376
aV\u7edd
p3377
aV\u98df
p3378
aV\u7684
p3379
aV\u5b66
p3380
aV\u751f
p3381
aV\u5929
p3382
aV\u5b89
p3383
aV\u95e8
p3384
aV\u5e7f
p3385
aV\u573a
p3386
atp3387
sI414
(V\u8881\u4f9d\u51e1
p3388
(lp3389
V\u8881
p3390
aV\u4f9d
p3391
aV\u51e1
p3392
atp3393
sI415
(V\u70b8\u5f39\u5236\u4f5c
p3394
(lp3395
V\u70b8
p3396
aV\u5f39
p3397
aV\u5236
p3398
aV\u4f5c
p3399
atp3400
sI416
(V\u9884\u6d4b\u9886\u5bfc\u4eba
p3401
(lp3402
V\u9884
p3403
aV\u6d4b
p3404
aV\u9886
p3405
aV\u5bfc
p3406
aV\u4eba
p3407
atp3408
sI417
(V\u6c5f\u6cfd\u6c11\u5176\u4eba
p3409
(lp3410
V\u6c5f
p3411
aV\u6cfd
p3412
aV\u6c11
p3413
aV\u5176
p3414
aV\u4eba
p3415
atp3416
sI418
(V\u6587\u5b57\u72f1
p3417
(lp3418
V\u6587
p3419
aV\u5b57
p3420
aV\u72f1
p3421
atp3422
sI419
(V\u6c5f\u7ef5\u6052 \u8f6f\u7981
p3423
(lp3424
V\u6c5f
p3425
aV\u7ef5
p3426
aV\u6052
p3427
aV\u8f6f
p3428
aV\u7981
p3429
atp3430
sI420
(V\u8f6f\u7981 \u6c5f\u6cfd\u6c11
p3431
(lp3432
V\u8f6f
p3433
aV\u7981
p3434
aV\u6c5f
p3435
aV\u6cfd
p3436
aV\u6c11
p3437
atp3438
sI421
(V\u4e2d\u9769\u4e2d\u592e
p3439
(lp3440
V\u4e2d
p3441
aV\u9769
p3442
aV\u4e2d
p3443
aV\u592e
p3444
atp3445
sI422
(V\u64cd\u4f60
p3446
(lp3447
V\u64cd
p3448
aV\u4f60
p3449
atp3450
sI423
(V\u66fe\u4f1f \u66fe\u5e86\u7ea2
p3451
(lp3452
V\u66fe
p3453
aV\u4f1f
p3454
aV\u66fe
p3455
aV\u5e86
p3456
aV\u7ea2
p3457
atp3458
sI424
(V\u674e\u9510
p3459
(lp3460
V\u674e
p3461
aV\u9510
p3462
atp3463
sI425
(V\u9ad8\u5c42\u4eba\u4e8b\u53d8\u52a8
p3464
(lp3465
V\u9ad8
p3466
aV\u5c42
p3467
aV\u4eba
p3468
aV\u4e8b
p3469
aV\u53d8
p3470
aV\u52a8
p3471
atp3472
sI426
(V\u5171\u532a
p3473
(lp3474
V\u5171
p3475
aV\u532a
p3476
atp3477
sI427
(V\u5341\u516b\u5927
p3478
(lp3479
V\u5341
p3480
aV\u516b
p3481
aV\u5927
p3482
atp3483
sI428
(V\u6253\u5012\u4e2d\u5171
p3484
(lp3485
V\u6253
p3486
aV\u5012
p3487
aV\u4e2d
p3488
aV\u5171
p3489
atp3490
sI429
(V\u9634\u830e
p3491
(lp3492
V\u9634
p3493
aV\u830e
p3494
atp3495
sI430
(Vxinsheng
p3496
(lp3497
Vxinsheng
p3498
atp3499
sI431
(V\u95e8\u5f92\u4f1a
p3500
(lp3501
V\u95e8
p3502
aV\u5f92
p3503
aV\u4f1a
p3504
atp3505
sI432
(V\u80e1\u6e29\u65b0\u653f
p3506
(lp3507
V\u80e1
p3508
aV\u6e29
p3509
aV\u65b0
p3510
aV\u653f
p3511
atp3512
sI433
(V\u897f\u85cf\u81ea\u7531
p3513
(lp3514
V\u897f
p3515
aV\u85cf
p3516
aV\u81ea
p3517
aV\u7531
p3518
atp3519
sI434
(V\u738b\u6668
p3520
(lp3521
V\u738b
p3522
aV\u6668
p3523
atp3524
sI435
(V\u4e2d\u5171\u72ec\u88c1\u66b4\u653f
p3525
(lp3526
V\u4e2d
p3527
aV\u5171
p3528
aV\u72ec
p3529
aV\u88c1
p3530
aV\u66b4
p3531
aV\u653f
p3532
atp3533
sI436
(V\u5171\u60e8\u515a
p3534
(lp3535
V\u5171
p3536
aV\u60e8
p3537
aV\u515a
p3538
atp3539
sI437
(V\u6251\u8857
p3540
(lp3541
V\u6251
p3542
aV\u8857
p3543
atp3544
sI438
(V\u6bcb\u5fd8\u516d\u56db
p3545
(lp3546
V\u6bcb
p3547
aV\u5fd8
p3548
aV\u516d
p3549
aV\u56db
p3550
atp3551
sI439
(V\u4eba\u6743\u5956
p3552
(lp3553
V\u4eba
p3554
aV\u6743
p3555
aV\u5956
p3556
atp3557
sI440
(V\u80e1\u9526\u6d9b
p3558
(lp3559
V\u80e1
p3560
aV\u9526
p3561
aV\u6d9b
p3562
atp3563
sI441
(V\u7ef4\u57fa\u767e\u79d1
p3564
(lp3565
V\u7ef4
p3566
aV\u57fa
p3567
aV\u767e
p3568
aV\u79d1
p3569
atp3570
sI442
(V\u674e\u745e\u73af
p3571
(lp3572
V\u674e
p3573
aV\u745e
p3574
aV\u73af
p3575
atp3576
sI443
(V\u7a81\u7834\u4e2d\u5171
p3577
(lp3578
V\u7a81
p3579
aV\u7834
p3580
aV\u4e2d
p3581
aV\u5171
p3582
atp3583
sI444
(V\u4e8c\u005c\u654f\u611f\u8bcd
p3584
(lp3585
V\u4e8c
p3586
aV\u654f
p3587
aV\u611f
p3588
aV\u8bcd
p3589
atp3590
sI445
(V\u6c5f\u6fa4\u6c11\u5176\u4eba
p3591
(lp3592
V\u6c5f
p3593
aV\u6fa4
p3594
aV\u6c11
p3595
aV\u5176
p3596
aV\u4eba
p3597
atp3598
sI446
(V\u7edf\u4e00\u80a1\u5e02
p3599
(lp3600
V\u7edf
p3601
aV\u4e00
p3602
aV\u80a1
p3603
aV\u5e02
p3604
atp3605
sI447
(V\u4e2d\u56fd\u653fF
p3606
(lp3607
V\u4e2d
p3608
aV\u56fd
p3609
aV\u653f
p3610
aVf
p3611
atp3612
sI448
(V\u6e29\u52a0\u9971
p3613
(lp3614
V\u6e29
p3615
aV\u52a0
p3616
aV\u9971
p3617
atp3618
sI449
(V\u6c6a\u5146\u94a7
p3619
(lp3620
V\u6c6a
p3621
aV\u5146
p3622
aV\u94a7
p3623
atp3624
sI450
(V\u7edd\u98df \u58f0\u63f4\u5b66\u751f \u5929\u5b89\u95e8\u5e7f\u573a
p3625
(lp3626
V\u7edd
p3627
aV\u98df
p3628
aV\u58f0
p3629
aV\u63f4
p3630
aV\u5b66
p3631
aV\u751f
p3632
aV\u5929
p3633
aV\u5b89
p3634
aV\u95e8
p3635
aV\u5e7f
p3636
aV\u573a
p3637
atp3638
sI451
(VBLOWJOB
p3639
(lp3640
Vblowjob
p3641
atp3642
sI452
(V\u5434\u4eea
p3643
(lp3644
V\u5434
p3645
aV\u4eea
p3646
atp3647
sI453
(V\u53e4\u5170\u7ecf
p3648
(lp3649
V\u53e4
p3650
aV\u5170
p3651
aV\u7ecf
p3652
atp3653
sI454
(V\u674e\u6d2a\u5fd7
p3654
(lp3655
V\u674e
p3656
aV\u6d2a
p3657
aV\u5fd7
p3658
atp3659
sI455
(V\u56de\u6559
p3660
(lp3661
V\u56de
p3662
aV\u6559
p3663
atp3664
sI456
(V\u8d3a\u536b\u65b9
p3665
(lp3666
V\u8d3a
p3667
aV\u536b
p3668
aV\u65b9
p3669
atp3670
sI457
(V\u5468\u6b63\u6bc5
p3671
(lp3672
V\u5468
p3673
aV\u6b63
p3674
aV\u6bc5
p3675
atp3676
sI458
(V\u65b0\u516b\u8363\u516b\u803b
p3677
(lp3678
V\u65b0
p3679
aV\u516b
p3680
aV\u8363
p3681
aV\u516b
p3682
aV\u803b
p3683
atp3684
sI459
(V\u515a\u7981
p3685
(lp3686
V\u515a
p3687
aV\u7981
p3688
atp3689
sI460
(V\u534e\u56fd\u950b
p3690
(lp3691
V\u534e
p3692
aV\u56fd
p3693
aV\u950b
p3694
atp3695
sI461
(V\u7f62\u5403
p3696
(lp3697
V\u7f62
p3698
aV\u5403
p3699
atp3700
sI462
(V\u80e1\u6e29\u63a5\u73ed\u4eba
p3701
(lp3702
V\u80e1
p3703
aV\u6e29
p3704
aV\u63a5
p3705
aV\u73ed
p3706
aV\u4eba
p3707
atp3708
sI463
(V\u5e72\u4f60\u5988
p3709
(lp3710
V\u5e72
p3711
aV\u4f60
p3712
aV\u5988
p3713
atp3714
sI464
(V\u6253\u5012\u5171\u4ea7\u515a
p3715
(lp3716
V\u6253
p3717
aV\u5012
p3718
aV\u5171
p3719
aV\u4ea7
p3720
aV\u515a
p3721
atp3722
sI465
(V\u516d\u56db\u5929\u5b89\u95e8
p3723
(lp3724
V\u516d
p3725
aV\u56db
p3726
aV\u5929
p3727
aV\u5b89
p3728
aV\u95e8
p3729
atp3730
sI466
(V\u65b0\u4e16\u7eaa\u65b0\u95fb\u7f51
p3731
(lp3732
V\u65b0
p3733
aV\u4e16
p3734
aV\u7eaa
p3735
aV\u65b0
p3736
aV\u95fb
p3737
aV\u7f51
p3738
atp3739
sI467
(V\u516d\u56db\u5b66\u8fd0
p3740
(lp3741
V\u516d
p3742
aV\u56db
p3743
aV\u5b66
p3744
aV\u8fd0
p3745
atp3746
sI468
(V\u738b\u4e50\u6cc9
p3747
(lp3748
V\u738b
p3749
aV\u4e50
p3750
aV\u6cc9
p3751
atp3752
sI469
(V89\u5b66\u6f6e
p3753
(lp3754
V89
p3755
aV\u5b66
p3756
aV\u6f6e
p3757
atp3758
sI470
(V\u53f0\u72ec
p3759
(lp3760
V\u53f0
p3761
aV\u72ec
p3762
atp3763
sI471
(V\u5988\u7684
p3764
(lp3765
V\u5988
p3766
aV\u7684
p3767
atp3768
sI472
(V\u516c\u5f00\u4fe1
p3769
(lp3770
V\u516c
p3771
aV\u5f00
p3772
aV\u4fe1
p3773
atp3774
sI473
(Vallah yolida
p3775
(lp3776
Vallah
p3777
aVyolida
p3778
atp3779
sI474
(V\u516d\u56db \u5218\u6653\u6ce2
p3780
(lp3781
V\u516d
p3782
aV\u56db
p3783
aV\u5218
p3784
aV\u6653
p3785
aV\u6ce2
p3786
atp3787
sI475
(Vjiaochuang
p3788
(lp3789
Vjiaochuang
p3790
atp3791
sI476
(V64\u5b66\u6f6e
p3792
(lp3793
V64
p3794
aV\u5b66
p3795
aV\u6f6e
p3796
atp3797
sI477
(V\u9ad8\u5c42\u6743\u529b\u4e4b\u4e89
p3798
(lp3799
V\u9ad8
p3800
aV\u5c42
p3801
aV\u6743
p3802
aV\u529b
p3803
aV\u4e4b
p3804
aV\u4e89
p3805
atp3806
sI478
(V\u53fc
p3807
(lp3808
V\u53fc
p3809
atp3810
sI479
(V\u80e1\u592a\u4e0a
p3811
(lp3812
V\u80e1
p3813
aV\u592a
p3814
aV\u4e0a
p3815
atp3816
sI480
(V\u4ed6\u5988
p3817
(lp3818
V\u4ed6
p3819
aV\u5988
p3820
atp3821
sI481
(V\u5ef6\u5b89\u65e5\u8bb0
p3822
(lp3823
V\u5ef6
p3824
aV\u5b89
p3825
aV\u65e5
p3826
aV\u8bb0
p3827
atp3828
sI482
(V\u8d3e\u5e86\u6797
p3829
(lp3830
V\u8d3e
p3831
aV\u5e86
p3832
aV\u6797
p3833
atp3834
sI483
(V\u9ec4\u83ca
p3835
(lp3836
V\u9ec4
p3837
aV\u83ca
p3838
atp3839
sI484
(V\u5929\u5b89\u95e8\u5c60\u592b
p3840
(lp3841
V\u5929
p3842
aV\u5b89
p3843
aV\u95e8
p3844
aV\u5c60
p3845
aV\u592b
p3846
atp3847
sI485
(Vchinamz
p3848
(lp3849
Vchinamz
p3850
atp3851
sI486
(V\u738b\u5146\u56fd
p3852
(lp3853
V\u738b
p3854
aV\u5146
p3855
aV\u56fd
p3856
atp3857
sI487
(V\u0626\u0627\u0644\u0644\u0627\u06be \u064a\u0648\u0644\u0649\u062f\u0627
p3858
(lp3859
V\u0626
p3860
aV\u0627
p3861
aV\u0644
p3862
aV\u0644
p3863
aV\u0627
p3864
aV\u06be
p3865
aV\u064a
p3866
aV\u0648
p3867
aV\u0644
p3868
aV\u0649
p3869
aV\u062f
p3870
aV\u0627
p3871
atp3872
sI488
(Vfree Tibet
p3873
(lp3874
Vfree
p3875
aVtibet
p3876
atp3877
sI489
(V\u592a\u5783JI
p3878
(lp3879
V\u592a
p3880
aV\u5783
p3881
aVji
p3882
atp3883
sI490
(V\u4e0a\u8bbf
p3884
(lp3885
V\u4e0a
p3886
aV\u8bbf
p3887
atp3888
sI491
(V\u7f62\u98df
p3889
(lp3890
V\u7f62
p3891
aV\u98df
p3892
atp3893
sI492
(V\u80e1\u4e66\u8bb0
p3894
(lp3895
V\u80e1
p3896
aV\u4e66
p3897
aV\u8bb0
p3898
atp3899
sI493
(V\u543e\u5c14\u5f00\u5e0c
p3900
(lp3901
V\u543e
p3902
aV\u5c14
p3903
aV\u5f00
p3904
aV\u5e0c
p3905
atp3906
sI494
(V\u771f\u5584\u5fcd
p3907
(lp3908
V\u771f
p3909
aV\u5584
p3910
aV\u5fcd
p3911
atp3912
sI495
(V\u97d3\u6b63 \u53d6\u4ee3\u674e\u514b\u5f37
p3913
(lp3914
V\u97d3
p3915
aV\u6b63
p3916
aV\u53d6
p3917
aV\u4ee3
p3918
aV\u674e
p3919
aV\u514b
p3920
aV\u5f37
p3921
atp3922
sI496
(V\u516d\u56db\u7eaa\u5ff5\u9986
p3923
(lp3924
V\u516d
p3925
aV\u56db
p3926
aV\u7eaa
p3927
aV\u5ff5
p3928
aV\u9986
p3929
atp3930
sI497
(V\u66fe\u5e86\u7ea2
p3931
(lp3932
V\u66fe
p3933
aV\u5e86
p3934
aV\u7ea2
p3935
atp3936
sI498
(V\u7fd2\u8fd1\u5e73\u9663\u71df \u6c5f\u6d3e
p3937
(lp3938
V\u7fd2
p3939
aV\u8fd1
p3940
aV\u5e73
p3941
aV\u9663
p3942
aV\u71df
p3943
aV\u6c5f
p3944
aV\u6d3e
p3945
atp3946
sI499
(V\u94a6\u70b9\u63a5\u73ed\u4eba
p3947
(lp3948
V\u94a6
p3949
aV\u70b9
p3950
aV\u63a5
p3951
aV\u73ed
p3952
aV\u4eba
p3953
atp3954
sI500
(V\u4ee4\u72d0\u8ba1\u5212
p3955
(lp3956
V\u4ee4
p3957
aV\u72d0
p3958
aV\u8ba1
p3959
aV\u5212
p3960
atp3961
sI501
(V\u5929\u5b89\u95e8\u5766\u514b
p3962
(lp3963
V\u5929
p3964
aV\u5b89
p3965
aV\u95e8
p3966
aV\u5766
p3967
aV\u514b
p3968
atp3969
sI502
(V\u80e1\u7cfb
p3970
(lp3971
V\u80e1
p3972
aV\u7cfb
p3973
atp3974
sI503
(V\u515a\u9b41
p3975
(lp3976
V\u515a
p3977
aV\u9b41
p3978
atp3979
sI504
(V\u9b4f\u4eac\u751f
p3980
(lp3981
V\u9b4f
p3982
aV\u4eac
p3983
aV\u751f
p3984
atp3985
sI505
(V89\u5e74 \u5317\u4eac\u6212\u4e25
p3986
(lp3987
V89
p3988
aV\u5e74
p3989
aV\u5317
p3990
aV\u4eac
p3991
aV\u6212
p3992
aV\u4e25
p3993
atp3994
sI506
(V\u9648\u5149\u8bda
p3995
(lp3996
V\u9648
p3997
aV\u5149
p3998
aV\u8bda
p3999
atp4000
sI507
(V\u6743\u529b\u5e03\u5c40
p4001
(lp4002
V\u6743
p4003
aV\u529b
p4004
aV\u5e03
p4005
aV\u5c40
p4006
atp4007
sI508
(V\u761f\u5bb6\u5b9d
p4008
(lp4009
V\u761f
p4010
aV\u5bb6
p4011
aV\u5b9d
p4012
atp4013
sI509
(V\u4e3b\u4e49
p4014
(lp4015
V\u4e3b
p4016
aV\u4e49
p4017
atp4018
sI510
(V\u701b\u6d77\u9547
p4019
(lp4020
V\u701b
p4021
aV\u6d77
p4022
aV\u9547
p4023
atp4024
sI511
(V\u4eba\u6743\u5723\u706b
p4025
(lp4026
V\u4eba
p4027
aV\u6743
p4028
aV\u5723
p4029
aV\u706b
p4030
atp4031
sI512
(V\u516d\u56db \u8d75\u7d2b\u9633 \u8f6f\u7981
p4032
(lp4033
V\u516d
p4034
aV\u56db
p4035
aV\u8d75
p4036
aV\u7d2b
p4037
aV\u9633
p4038
aV\u8f6f
p4039
aV\u7981
p4040
atp4041
sI513
(V1989 \u6c11\u4e3b\u8fd0\u52a8
p4042
(lp4043
V1989
p4044
aV\u6c11
p4045
aV\u4e3b
p4046
aV\u8fd0
p4047
aV\u52a8
p4048
atp4049
sI514
(V\u516d\u56db \u5289\u66c9\u6ce2
p4050
(lp4051
V\u516d
p4052
aV\u56db
p4053
aV\u5289
p4054
aV\u66c9
p4055
aV\u6ce2
p4056
atp4057
sI515
(V\u9633\u5177
p4058
(lp4059
V\u9633
p4060
aV\u5177
p4061
atp4062
sI516
(V\u516d\u56db\u9547\u538b \u4e2d\u5171
p4063
(lp4064
V\u516d
p4065
aV\u56db
p4066
aV\u9547
p4067
aV\u538b
p4068
aV\u4e2d
p4069
aV\u5171
p4070
atp4071
sI517
(Vtriangleboy
p4072
(lp4073
Vtriangleboy
p4074
atp4075
sI518
(V\u5929\u5b89\u95e8\u8650\u6740
p4076
(lp4077
V\u5929
p4078
aV\u5b89
p4079
aV\u95e8
p4080
aV\u8650
p4081
aV\u6740
p4082
atp4083
sI519
(V\u5218\u6797\u667a
p4084
(lp4085
V\u5218
p4086
aV\u6797
p4087
aV\u667a
p4088
atp4089
sI520
(V\u56de\u826f\u7389
p4090
(lp4091
V\u56de
p4092
aV\u826f
p4093
aV\u7389
p4094
atp4095
sI521
(V\u7a46\u65af\u6797
p4096
(lp4097
V\u7a46
p4098
aV\u65af
p4099
aV\u6797
p4100
atp4101
sI522
(V\u52a8\u6001\u7f51
p4102
(lp4103
V\u52a8
p4104
aV\u6001
p4105
aV\u7f51
p4106
atp4107
sI523
(V\u5929\u5b89\u95e8\u516d\u56db
p4108
(lp4109
V\u5929
p4110
aV\u5b89
p4111
aV\u95e8
p4112
aV\u516d
p4113
aV\u56db
p4114
atp4115
sI524
(V\u5b50\u5bab
p4116
(lp4117
V\u5b50
p4118
aV\u5bab
p4119
atp4120
sI525
(V\u4e25\u7981\u8bcd
p4121
(lp4122
V\u4e25
p4123
aV\u7981
p4124
aV\u8bcd
p4125
atp4126
sI526
(V\u8001\u4eba\u96c6\u56e2
p4127
(lp4128
V\u8001
p4129
aV\u4eba
p4130
aV\u96c6
p4131
aV\u56e2
p4132
atp4133
sI527
(V\u6c5f\u6cfd\u6c11
p4134
(lp4135
V\u6c5f
p4136
aV\u6cfd
p4137
aV\u6c11
p4138
atp4139
sI528
(V\u738b\u5fd7\u521a
p4140
(lp4141
V\u738b
p4142
aV\u5fd7
p4143
aV\u521a
p4144
atp4145
sI529
(V\u9a74B
p4146
(lp4147
V\u9a74
p4148
aVb
p4149
atp4150
sI530
(V\u5168\u7403\u4eba\u6587\u7eaa\u5143
p4151
(lp4152
V\u5168
p4153
aV\u7403
p4154
aV\u4eba
p4155
aV\u6587
p4156
aV\u7eaa
p4157
aV\u5143
p4158
atp4159
sI531
(V\u9127\u5c0f\u5e73
p4160
(lp4161
V\u9127
p4162
aV\u5c0f
p4163
aV\u5e73
p4164
atp4165
sI532
(V\u4e09\u5511\u4ed1
p4166
(lp4167
V\u4e09
p4168
aV\u5511
p4169
aV\u4ed1
p4170
atp4171
sI533
(V\u7f8e\u56fd\u4e4b\u97f3
p4172
(lp4173
V\u7f8e
p4174
aV\u56fd
p4175
aV\u4e4b
p4176
aV\u97f3
p4177
atp4178
sI534
(V\u674e\u6ee8
p4179
(lp4180
V\u674e
p4181
aV\u6ee8
p4182
atp4183
sI535
(V\u6e29\u5bb6\u5b9d
p4184
(lp4185
V\u6e29
p4186
aV\u5bb6
p4187
aV\u5b9d
p4188
atp4189
sI536
(Vnetease
p4190
(lp4191
Vnetease
p4192
atp4193
sI537
(V\u771f\u76f8 \u5171\u4ea7\u515a 64\u5c60\u6740
p4194
(lp4195
V\u771f
p4196
aV\u76f8
p4197
aV\u5171
p4198
aV\u4ea7
p4199
aV\u515a
p4200
aV64
p4201
aV\u5c60
p4202
aV\u6740
p4203
atp4204
sI538
(V\u8d75\u7d2b\u9633
p4205
(lp4206
V\u8d75
p4207
aV\u7d2b
p4208
aV\u9633
p4209
atp4210
sI539
(V\u5929\u5b89\u95e8\u81ea\u711a
p4211
(lp4212
V\u5929
p4213
aV\u5b89
p4214
aV\u95e8
p4215
aV\u81ea
p4216
aV\u711a
p4217
atp4218
sI540
(Vrenmingbao
p4219
(lp4220
Vrenmingbao
p4221
atp4222
sI541
(V\u516b\u4e5d\u8840\u6848
p4223
(lp4224
V\u516b
p4225
aV\u4e5d
p4226
aV\u8840
p4227
aV\u6848
p4228
atp4229
sI542
(VNMIS
p4230
(lp4231
Vnmis
p4232
atp4233
sI543
(V\u8d75\u603b\u7406
p4234
(lp4235
V\u8d75
p4236
aV\u603b
p4237
aV\u7406
p4238
atp4239
sI544
(V*
p4240
(lp4241
tp4242
sI545
(V\u5766\u514b \u516d\u56db \u5c60\u6740
p4243
(lp4244
V\u5766
p4245
aV\u514b
p4246
aV\u516d
p4247
aV\u56db
p4248
aV\u5c60
p4249
aV\u6740
p4250
atp4251
sI546
(V\u516d\u56db \u516c\u5f00\u4fe1
p4252
(lp4253
V\u516d
p4254
aV\u56db
p4255
aV\u516c
p4256
aV\u5f00
p4257
aV\u4fe1
p4258
atp4259
sI547
(V\u7d2b\u9633
p4260
(lp4261
V\u7d2b
p4262
aV\u9633
p4263
atp4264
sI548
(V\u9000\u515a \u5927\u6f6e
p4265
(lp4266
V\u9000
p4267
aV\u515a
p4268
aV\u5927
p4269
aV\u6f6e
p4270
atp4271
sI549
(V\u5929\u5b89\u95e8\u6d41\u8840
p4272
(lp4273
V\u5929
p4274
aV\u5b89
p4275
aV\u95e8
p4276
aV\u6d41
p4277
aV\u8840
p4278
atp4279
sI550
(V\u5468\u6c38\u5eb7 \u8584\u7199\u6765 \u653f\u53d8
p4280
(lp4281
V\u5468
p4282
aV\u6c38
p4283
aV\u5eb7
p4284
aV\u8584
p4285
aV\u7199
p4286
aV\u6765
p4287
aV\u653f
p4288
aV\u53d8
p4289
atp4290
sI551
(V64\u8fd0\u52a8
p4291
(lp4292
V64
p4293
aV\u8fd0
p4294
aV\u52a8
p4295
atp4296
sI552
(V\u516d\u56db\u66b4\u4e71
p4297
(lp4298
V\u516d
p4299
aV\u56db
p4300
aV\u66b4
p4301
aV\u4e71
p4302
atp4303
sI553
(V\u6c5f\u6cfd\u6c11 \u53bb\u4e16
p4304
(lp4305
V\u6c5f
p4306
aV\u6cfd
p4307
aV\u6c11
p4308
aV\u53bb
p4309
aV\u4e16
p4310
atp4311
sI554
(V\u63a8\u7ffb\u5171\u515a
p4312
(lp4313
V\u63a8
p4314
aV\u7ffb
p4315
aV\u5171
p4316
aV\u515a
p4317
atp4318
sI555
(V\u9ad8\u667a\u6210
p4319
(lp4320
V\u9ad8
p4321
aV\u667a
p4322
aV\u6210
p4323
atp4324
sI556
(V\u8edf\u7981 \u6c5f\u6fa4\u6c11
p4325
(lp4326
V\u8edf
p4327
aV\u7981
p4328
aV\u6c5f
p4329
aV\u6fa4
p4330
aV\u6c11
p4331
atp4332
sI557
(VADMIN
p4333
(lp4334
Vadmin
p4335
atp4336
sI558
(V\u603b\u4e66\u8bb0
p4337
(lp4338
V\u603b
p4339
aV\u4e66
p4340
aV\u8bb0
p4341
atp4342
sI559
(V163
p4343
(lp4344
V163
p4345
atp4346
sI560
(V\u65b0\u95fb\u529e
p4347
(lp4348
V\u65b0
p4349
aV\u95fb
p4350
aV\u529e
p4351
atp4352
sI561
(V\u6cd5\u8f6e\u5927\u6cd5
p4353
(lp4354
V\u6cd5
p4355
aV\u8f6e
p4356
aV\u5927
p4357
aV\u6cd5
p4358
atp4359
sI562
(V\ufffd\u5bb6\u4ea7
p4360
(lp4361
V\ufffd
p4362
aV\u5bb6
p4363
aV\u4ea7
p4364
atp4365
sI563
(V\u56fd\u65b0\u529e\u4e3b\u4efb
p4366
(lp4367
V\u56fd
p4368
aV\u65b0
p4369
aV\u529e
p4370
aV\u4e3b
p4371
aV\u4efb
p4372
atp4373
sI564
(Vminghui
p4374
(lp4375
Vminghui
p4376
atp4377
sI565
(V\u674e\u6e90\u6f6e
p4378
(lp4379
V\u674e
p4380
aV\u6e90
p4381
aV\u6f6e
p4382
atp4383
sI566
(V\u516b\u4e5d\u5b66\u6f6e
p4384
(lp4385
V\u516b
p4386
aV\u4e5d
p4387
aV\u5b66
p4388
aV\u6f6e
p4389
atp4390
sI567
(V\u6cd5\u8f2a\u529f
p4391
(lp4392
V\u6cd5
p4393
aV\u8f2a
p4394
aV\u529f
p4395
atp4396
sI568
(V\u8309\u8389\u82b1\u9769\u547d
p4397
(lp4398
V\u8309
p4399
aV\u8389
p4400
aV\u82b1
p4401
aV\u9769
p4402
aV\u547d
p4403
atp4404
sI569
(V\u70b8\u4e86\u8bc1\u76d1\u4f1a
p4405
(lp4406
V\u70b8
p4407
aV\u4e86
p4408
aV\u8bc1
p4409
aV\u76d1
p4410
aV\u4f1a
p4411
atp4412
sI570
(V\u5e72\u4f60\u5168\u5bb6
p4413
(lp4414
V\u5e72
p4415
aV\u4f60
p4416
aV\u5168
p4417
aV\u5bb6
p4418
atp4419
sI571
(V89\u8fd0\u52a8
p4420
(lp4421
V89
p4422
aV\u8fd0
p4423
aV\u52a8
p4424
atp4425
sI572
(V\u8fbe\u8d56
p4426
(lp4427
V\u8fbe
p4428
aV\u8d56
p4429
atp4430
sI573
(V\u7eaa\u5ff5\u516d\u56db
p4431
(lp4432
V\u7eaa
p4433
aV\u5ff5
p4434
aV\u516d
p4435
aV\u56db
p4436
atp4437
sI574
(V\u5927\u8d66\u56fd\u9645
p4438
(lp4439
V\u5927
p4440
aV\u8d66
p4441
aV\u56fd
p4442
aV\u9645
p4443
atp4444
sI575
(Vhrichina
p4445
(lp4446
Vhrichina
p4447
atp4448
sI576
(VZHU\u6240\u751f\uff01
p4449
(lp4450
Vzhu
p4451
aV\u6240
p4452
aV\u751f
p4453
aV\uff01
p4454
atp4455
sI577
(Vshit
p4456
(lp4457
Vshit
p4458
atp4459
sI578
(V\u6d89\u53f0\u653f\u5c40
p4460
(lp4461
V\u6d89
p4462
aV\u53f0
p4463
aV\u653f
p4464
aV\u5c40
p4465
atp4466
sI579
(V\u634c\u7396\u9646\u8086
p4467
(lp4468
V\u634c
p4469
aV\u7396
p4470
aV\u9646
p4471
aV\u8086
p4472
atp4473
sI580
(V\u516d\u56db\u65e5\u8bb0
p4474
(lp4475
V\u516d
p4476
aV\u56db
p4477
aV\u65e5
p4478
aV\u8bb0
p4479
atp4480
sI581
(V\u516d\u56db \u8840\u8165 \u9547\u538b
p4481
(lp4482
V\u516d
p4483
aV\u56db
p4484
aV\u8840
p4485
aV\u8165
p4486
aV\u9547
p4487
aV\u538b
p4488
atp4489
sI582
(V\u516d\u56db\u4e8b\u4ef6 \u9127\u5c0f\u5e73
p4490
(lp4491
V\u516d
p4492
aV\u56db
p4493
aV\u4e8b
p4494
aV\u4ef6
p4495
aV\u9127
p4496
aV\u5c0f
p4497
aV\u5e73
p4498
atp4499
sI583
(V\u6c5f\u6cfd\u6c11 \u6c5f\u5bb6\u5e2e
p4500
(lp4501
V\u6c5f
p4502
aV\u6cfd
p4503
aV\u6c11
p4504
aV\u6c5f
p4505
aV\u5bb6
p4506
aV\u5e2e
p4507
atp4508
sI584
(V\u6446\u8131\u4e2d\u5171\u9644\u4f53
p4509
(lp4510
V\u6446
p4511
aV\u8131
p4512
aV\u4e2d
p4513
aV\u5171
p4514
aV\u9644
p4515
aV\u4f53
p4516
atp4517
sI585
(V\u5047\u5e86\u6dcb
p4518
(lp4519
V\u5047
p4520
aV\u5e86
p4521
aV\u6dcb
p4522
atp4523
sI586
(V\u4e2d\u5357\u6d77
p4524
(lp4525
V\u4e2d
p4526
aV\u5357
p4527
aV\u6d77
p4528
atp4529
sI587
(V\u5185\u4e89\u4eba\u6743
p4530
(lp4531
V\u5185
p4532
aV\u4e89
p4533
aV\u4eba
p4534
aV\u6743
p4535
atp4536
sI588
(Vjiangdongriji
p4537
(lp4538
Vjiangdongriji
p4539
atp4540
sI589
(V\u6c5f\u5bb6\u5e2e
p4541
(lp4542
V\u6c5f
p4543
aV\u5bb6
p4544
aV\u5e2e
p4545
atp4546
sI590
(V\u52a8\u4e71 \u5b66\u6f6e 1989\u98ce\u6ce2
p4547
(lp4548
V\u52a8
p4549
aV\u4e71
p4550
aV\u5b66
p4551
aV\u6f6e
p4552
aV1989
p4553
aV\u98ce
p4554
aV\u6ce2
p4555
atp4556
sI591
(VUltraSurf
p4557
(lp4558
Vultrasurf
p4559
atp4560
sI592
(V\u52ff\u5fd8\u516d\u56db
p4561
(lp4562
V\u52ff
p4563
aV\u5fd8
p4564
aV\u516d
p4565
aV\u56db
p4566
atp4567
sI593
(V\u5f00\u653e\u6742\u5fd7
p4568
(lp4569
V\u5f00
p4570
aV\u653e
p4571
aV\u6742
p4572
aV\u5fd7
p4573
atp4574
sI594
(V\u5fb7\u56fd\u4e4b\u58f0
p4575
(lp4576
V\u5fb7
p4577
aV\u56fd
p4578
aV\u4e4b
p4579
aV\u58f0
p4580
atp4581
sI595
(V\u7f57\u5e72
p4582
(lp4583
V\u7f57
p4584
aV\u5e72
p4585
atp4586
sI596
(V89\u6c11\u8fd0
p4587
(lp4588
V89
p4589
aV\u6c11
p4590
aV\u8fd0
p4591
atp4592
sI597
(V\u67f4\u73b2
p4593
(lp4594
V\u67f4
p4595
aV\u73b2
p4596
atp4597
sI598
(Vdajiyuan
p4598
(lp4599
Vdajiyuan
p4600
atp4601
sI599
(V\u9493\u9c7c\u5c9b
p4602
(lp4603
V\u9493
p4604
aV\u9c7c
p4605
aV\u5c9b
p4606
atp4607
sI600
(V\u516d\u56db \u60bc\u5ff5 \u70db\u5149\u665a\u4f1a
p4608
(lp4609
V\u516d
p4610
aV\u56db
p4611
aV\u60bc
p4612
aV\u5ff5
p4613
aV\u70db
p4614
aV\u5149
p4615
aV\u665a
p4616
aV\u4f1a
p4617
atp4618
sI601
(VFeelmistone
p4619
(lp4620
Vfeelmistone
p4621
atp4622
sI602
(V\u62b5\u5236\u5965\u8fd0
p4623
(lp4624
V\u62b5
p4625
aV\u5236
p4626
aV\u5965
p4627
aV\u8fd0
p4628
atp4629
ssS'_index_word_size'
p4630
I780
sS'_vocab'
p4631
(dp4632
V\u7981
p4633
(dp4634
S'freq'
p4635
I7
sS'wid'
p4636
I581
ssV\u9000
p4637
(dp4638
g4635
I7
sg4636
I271
ssV\u667a
p4639
(dp4640
g4635
I2
sg4636
I725
ssV\u6d89
p4641
(dp4642
g4635
I1
sg4636
I760
ssV\u5408
p4643
(dp4644
g4635
I1
sg4636
I631
ssV\u9910
p4645
(dp4646
g4635
I1
sg4636
I467
ssV\u4eea
p4647
(dp4648
g4635
I2
sg4636
I569
ssV\u9493
p4649
(dp4650
g4635
I2
sg4636
I612
ssV\u6297
p4651
(dp4652
g4635
I1
sg4636
I281
ssV\u5916
p4653
(dp4654
g4635
I1
sg4636
I216
ssV\u8d99
p4655
(dp4656
g4635
I1
sg4636
I516
ssV\u4f1a
p4657
(dp4658
g4635
I7
sg4636
I111
ssV\u5b9d
p4659
(dp4660
g4635
I2
sg4636
I718
ssV\u5e9f
p4661
(dp4662
g4635
I1
sg4636
I68
ssV\u6d1e
p4663
(dp4664
g4635
I1
sg4636
I478
ssV\u9020
p4665
(dp4666
g4635
I1
sg4636
I470
ssV\u88ab
p4667
(dp4668
g4635
I1
sg4636
I357
ssV\u4f2a
p4669
(dp4670
g4635
I1
sg4636
I182
ssV\u9633
p4671
(dp4672
g4635
I10
sg4636
I147
ssVtaip
p4673
(dp4674
g4635
I1
sg4636
I41
ssV\u552e
p4675
(dp4676
g4635
I2
sg4636
I73
ssV\u0634
p4677
(dp4678
g4635
I2
sg4636
I137
ssV\u65b9
p4679
(dp4680
g4635
I3
sg4636
I479
ssV\u6c38
p4681
(dp4682
g4635
I3
sg4636
I307
ssV\u573a
p4683
(dp4684
g4635
I11
sg4636
I16
ssV\u5bbd
p4685
(dp4686
g4635
I1
sg4636
I86
ssV\u6d3e
p4687
(dp4688
g4635
I7
sg4636
I118
ssV\u79c1
p4689
(dp4690
g4635
I1
sg4636
I230
ssV\u8840
p4691
(dp4692
g4635
I12
sg4636
I20
ssV\u9b42
p4693
(dp4694
g4635
I1
sg4636
I353
ssV\u0644
p4695
(dp4696
g4635
I7
sg4636
I241
ssV\u5146
p4697
(dp4698
g4635
I2
sg4636
I671
ssV\u6bcd
p4699
(dp4700
g4635
I3
sg4636
I114
ssV\u7ecf
p4701
(dp4702
g4635
I1
sg4636
I677
ssV\u91d1
p4703
(dp4704
g4635
I1
sg4636
I343
ssV\u5fd8
p4705
(dp4706
g4635
I2
sg4636
I657
ssV\u7956
p4707
(dp4708
g4635
I1
sg4636
I274
ssV\u5458
p4709
(dp4710
g4635
I1
sg4636
I312
ssV\u70db
p4711
(dp4712
g4635
I2
sg4636
I108
ssV\u575a
p4713
(dp4714
g4635
I1
sg4636
I414
ssV\u7edf
p4715
(dp4716
g4635
I1
sg4636
I665
ssV\u51e1
p4717
(dp4718
g4635
I1
sg4636
I637
ssV\u67e5
p4719
(dp4720
g4635
I1
sg4636
I199
ssV\u9664
p4721
(dp4722
g4635
I1
sg4636
I69
ssV\u65e9
p4723
(dp4724
g4635
I1
sg4636
I293
ssV\u5468
p4725
(dp4726
g4635
I5
sg4636
I306
ssV\u73ed
p4727
(dp4728
g4635
I4
sg4636
I426
ssV\u9a6c
p4729
(dp4730
g4635
I6
sg4636
I55
ssV\u5ff5
p4731
(dp4732
g4635
I10
sg4636
I303
ssV\u5e74
p4733
(dp4734
g4635
I4
sg4636
I143
ssV\u5e2d
p4735
(dp4736
g4635
I3
sg4636
I36
ssVzhu
p4737
(dp4738
g4635
I1
sg4636
I757
ssV\u8fbe
p4739
(dp4740
g4635
I2
sg4636
I627
ssVfreechina
p4741
(dp4742
g4635
I1
sg4636
I94
ssV\u9b41
p4743
(dp4744
g4635
I1
sg4636
I711
ssV\u8c03
p4745
(dp4746
g4635
I1
sg4636
I436
ssV\u7684
p4747
(dp4748
g4635
I7
sg4636
I18
ssV\u9986
p4749
(dp4750
g4635
I1
sg4636
I705
ssV\u4e94
p4751
(dp4752
g4635
I1
sg4636
I162
ssV\u5217
p4753
(dp4754
g4635
I1
sg4636
I58
ssV\u5403
p4755
(dp4756
g4635
I1
sg4636
I684
ssV\u06c7
p4757
(dp4758
g4635
I1
sg4636
I624
ssV\u661f
p4759
(dp4760
g4635
I2
sg4636
I122
ssV\u6c23
p4761
(dp4762
g4635
I1
sg4636
I442
ssVkissmyass
p4763
(dp4764
g4635
I1
sg4636
I584
ssV\u67aa
p4765
(dp4766
g4635
I4
sg4636
I75
ssVtringel
p4767
(dp4768
g4635
I1
sg4636
I395
ssV\u062f
p4769
(dp4770
g4635
I3
sg4636
I239
ssV\u8131
p4771
(dp4772
g4635
I1
sg4636
I762
ssV\u73b2
p4773
(dp4774
g4635
I1
sg4636
I772
ssV\u97f3
p4775
(dp4776
g4635
I1
sg4636
I737
ssV\u66b4
p4777
(dp4778
g4635
I6
sg4636
I8
ssV\u7237
p4779
(dp4780
g4635
I2
sg4636
I238
ssVhypermart.net
p4781
(dp4782
g4635
I1
sg4636
I153
ssV\u7ef5
p4783
(dp4784
g4635
I2
sg4636
I620
ssV\u603b
p4785
(dp4786
g4635
I3
sg4636
I451
ssV\u963f
p4787
(dp4788
g4635
I1
sg4636
I633
ssV\u53c2
p4789
(dp4790
g4635
I1
sg4636
I593
ssV\u96c4
p4791
(dp4792
g4635
I1
sg4636
I186
ssV\u7247
p4793
(dp4794
g4635
I1
sg4636
I83
ssV\u59c6
p4795
(dp4796
g4635
I1
sg4636
I174
ssV\u904b
p4797
(dp4798
g4635
I2
sg4636
I398
ssV\u9e4f
p4799
(dp4800
g4635
I4
sg4636
I57
ssV\u63d2
p4801
(dp4802
g4635
I1
sg4636
I358
ssV\u6559
p4803
(dp4804
g4635
I1
sg4636
I679
ssV\u63a5
p4805
(dp4806
g4635
I4
sg4636
I425
ssV\u665f
p4807
(dp4808
g4635
I1
sg4636
I534
ssV\u8463
p4809
(dp4810
g4635
I1
sg4636
I317
ssV\u738b
p4811
(dp4812
g4635
I12
sg4636
I103
ssV\u6765
p4813
(dp4814
g4635
I2
sg4636
I369
ssV\u86e4
p4815
(dp4816
g4635
I1
sg4636
I179
ssV\u7267
p4817
(dp4818
g4635
I1
sg4636
I327
ssV\u79e6
p4819
(dp4820
g4635
I1
sg4636
I560
ssV\u706b
p4821
(dp4822
g4635
I2
sg4636
I597
ssV\u6ee8
p4823
(dp4824
g4635
I1
sg4636
I738
ssVfreenet
p4825
(dp4826
g4635
I1
sg4636
I191
ssV\u72ec
p4827
(dp4828
g4635
I6
sg4636
I66
ssV\u666f
p4829
(dp4830
g4635
I1
sg4636
I526
ssV\u5171
p4831
(dp4832
g4635
I38
sg4636
I71
ssV\u58f0
p4833
(dp4834
g4635
I3
sg4636
I401
ssV\u53f2
p4835
(dp4836
g4635
I1
sg4636
I510
ssV\u7ef4
p4837
(dp4838
g4635
I7
sg4636
I22
ssV\u57fa
p4839
(dp4840
g4635
I2
sg4636
I413
ssV\u5e7f
p4841
(dp4842
g4635
I8
sg4636
I15
ssV\u8881
p4843
(dp4844
g4635
I2
sg4636
I490
ssV\u6001
p4845
(dp4846
g4635
I1
sg4636
I729
ssV\u8f2a
p4847
(dp4848
g4635
I2
sg4636
I555
ssV\u5b87
p4849
(dp4850
g4635
I1
sg4636
I579
ssV\u4e0a
p4851
(dp4852
g4635
I8
sg4636
I17
ssV\u540e
p4853
(dp4854
g4635
I1
sg4636
I365
ssV\u9759
p4855
(dp4856
g4635
I1
sg4636
I421
ssV\u6212
p4857
(dp4858
g4635
I5
sg4636
I298
ssV\u519b
p4859
(dp4860
g4635
I1
sg4636
I602
ssVfalundafa
p4861
(dp4862
g4635
I1
sg4636
I215
ssV\u704c
p4863
(dp4864
g4635
I1
sg4636
I377
ssV\u80a1
p4865
(dp4866
g4635
I1
sg4636
I666
ssVwebzen
p4867
(dp4868
g4635
I1
sg4636
I573
ssV\u4f24
p4869
(dp4870
g4635
I1
sg4636
I511
ssV\u062a
p4871
(dp4872
g4635
I1
sg4636
I134
ssV\u7b2c
p4873
(dp4874
g4635
I1
sg4636
I161
ssV\u6d88
p4875
(dp4876
g4635
I1
sg4636
I551
ssV\u4fde
p4877
(dp4878
g4635
I1
sg4636
I400
ssVhongzhi
p4879
(dp4880
g4635
I1
sg4636
I247
ssV\u9634
p4881
(dp4882
g4635
I3
sg4636
I355
ssV\u88c1
p4883
(dp4884
g4635
I2
sg4636
I296
ssV\u7eb7
p4885
(dp4886
g4635
I1
sg4636
I533
ssVdfdz
p4887
(dp4888
g4635
I1
sg4636
I577
ssV\u79cb
p4889
(dp4890
g4635
I2
sg4636
I340
ssV\u064a
p4891
(dp4892
g4635
I2
sg4636
I243
ssV\u634c
p4893
(dp4894
g4635
I2
sg4636
I514
ssV\u90d1
p4895
(dp4896
g4635
I1
sg4636
I380
ssV\u06d5
p4897
(dp4898
g4635
I3
sg4636
I132
ssVzangdu
p4899
(dp4900
g4635
I1
sg4636
I570
ssVpenis
p4901
(dp4902
g4635
I1
sg4636
I266
ssV\u5965
p4903
(dp4904
g4635
I1
sg4636
I779
ssV\u665a
p4905
(dp4906
g4635
I1
sg4636
I776
ssV\u745e
p4907
(dp4908
g4635
I1
sg4636
I660
ssV\u80e1
p4909
(dp4910
g4635
I23
sg4636
I6
ssV\u5411
p4911
(dp4912
g4635
I1
sg4636
I590
ssV\u5f3a
p4913
(dp4914
g4635
I4
sg4636
I204
ssVf
p4915
(dp4916
g4635
I1
sg4636
I667
ssV\u5170
p4917
(dp4918
g4635
I1
sg4636
I676
ssVcao
p4919
(dp4920
g4635
I1
sg4636
I278
ssV\u8bf7
p4921
(dp4922
g4635
I1
sg4636
I543
ssV\u6076
p4923
(dp4924
g4635
I1
sg4636
I190
ssV\u8d3e
p4925
(dp4926
g4635
I2
sg4636
I409
ssV\u8001
p4927
(dp4928
g4635
I6
sg4636
I267
ssVjiaochun
p4929
(dp4930
g4635
I1
sg4636
I286
ssV\u6e05
p4931
(dp4932
g4635
I4
sg4636
I205
ssV\u9886
p4933
(dp4934
g4635
I4
sg4636
I159
ssV\u5409
p4935
(dp4936
g4635
I1
sg4636
I172
ssV\u996d
p4937
(dp4938
g4635
I1
sg4636
I544
ssV\u968a
p4939
(dp4940
g4635
I1
sg4636
I494
ssVfuck
p4941
(dp4942
g4635
I1
sg4636
I292
ssV\u5317
p4943
(dp4944
g4635
I1
sg4636
I714
ssV\u8896
p4945
(dp4946
g4635
I1
sg4636
I507
ssV\u6bc5
p4947
(dp4948
g4635
I1
sg4636
I681
ssV\u4e9a
p4949
(dp4950
g4635
I4
sg4636
I336
ssVtai
p4951
(dp4952
g4635
I1
sg4636
I272
ssV\u5f1f
p4953
(dp4954
g4635
I2
sg4636
I92
ssV\u9644
p4955
(dp4956
g4635
I1
sg4636
I763
ssV\u6625
p4957
(dp4958
g4635
I2
sg4636
I277
ssVgcd
p4959
(dp4960
g4635
I2
sg4636
I141
ssV\u68a6
p4961
(dp4962
g4635
I1
sg4636
I227
ssV\u592b
p4963
(dp4964
g4635
I1
sg4636
I693
ssV\u7eaa
p4965
(dp4966
g4635
I8
sg4636
I154
ssV89-64cdjp
p4967
(dp4968
g4635
I1
sg4636
I313
ssV\ufffd
p4969
(dp4970
g4635
I3
sg4636
I214
ssV\u9635
p4971
(dp4972
g4635
I1
sg4636
I502
ssV\u771f
p4973
(dp4974
g4635
I3
sg4636
I150
ssV\u4f2f
p4975
(dp4976
g4635
I1
sg4636
I185
ssV\u4eba
p4977
(dp4978
g4635
I20
sg4636
I60
ssV\u7cbe
p4979
(dp4980
g4635
I1
sg4636
I127
ssVadministrator
p4981
(dp4982
g4635
I1
sg4636
I535
ssV\u0645
p4983
(dp4984
g4635
I2
sg4636
I242
ssV\u6c49
p4985
(dp4986
g4635
I1
sg4636
I531
ssV\u53cd
p4987
(dp4988
g4635
I3
sg4636
I156
ssV\u514b
p4989
(dp4990
g4635
I11
sg4636
I195
ssV\u524d
p4991
(dp4992
g4635
I1
sg4636
I144
ssVvoachinese
p4993
(dp4994
g4635
I1
sg4636
I331
ssV\u6851
p4995
(dp4996
g4635
I1
sg4636
I212
ssV\u52d2
p4997
(dp4998
g4635
I2
sg4636
I237
ssV\u5e55
p4999
(dp5000
g4635
I1
sg4636
I226
ssVgruepin
p5001
(dp5002
g4635
I1
sg4636
I604
ssV\u5357
p5003
(dp5004
g4635
I2
sg4636
I175
ssV\u4e25
p5005
(dp5006
g4635
I5
sg4636
I299
ssV\u7fa4
p5007
(dp5008
g4635
I1
sg4636
I165
ssV\u79d1
p5009
(dp5010
g4635
I2
sg4636
I416
ssV\u95e8
p5011
(dp5012
g4635
I27
sg4636
I28
ssV\u516b
p5013
(dp5014
g4635
I14
sg4636
I140
ssV\u90a6
p5015
(dp5016
g4635
I1
sg4636
I39
ssV\u8f6f
p5017
(dp5018
g4635
I3
sg4636
I642
ssV\u7535
p5019
(dp5020
g4635
I1
sg4636
I452
ssV\u67f4
p5021
(dp5022
g4635
I1
sg4636
I771
ssVsb
p5023
(dp5024
g4635
I3
sg4636
I279
ssV\u5efa
p5025
(dp5026
g4635
I2
sg4636
I104
ssV\u5bfc
p5027
(dp5028
g4635
I2
sg4636
I438
ssVyuming
p5029
(dp5030
g4635
I1
sg4636
I622
ssV\u5b81
p5031
(dp5032
g4635
I1
sg4636
I586
ssV\u8a00
p5033
(dp5034
g4635
I1
sg4636
I107
ssV\u8d85
p5035
(dp5036
g4635
I1
sg4636
I123
ssV\u6700
p5037
(dp5038
g4635
I1
sg4636
I364
ssV\u8f89
p5039
(dp5040
g4635
I2
sg4636
I14
ssV\u662d
p5041
(dp5042
g4635
I1
sg4636
I166
ssV\u6b8b
p5043
(dp5044
g4635
I1
sg4636
I297
ssV\u5956
p5045
(dp5046
g4635
I1
sg4636
I658
ssV\u6210
p5047
(dp5048
g4635
I1
sg4636
I745
ssV\u5e93
p5049
(dp5050
g4635
I1
sg4636
I130
ssV\u6c14
p5051
(dp5052
g4635
I1
sg4636
I268
ssV\u5316
p5053
(dp5054
g4635
I1
sg4636
I326
ssV\u5a9b
p5055
(dp5056
g4635
I1
sg4636
I440
ssVzhuanfalun
p5057
(dp5058
g4635
I1
sg4636
I359
ssV\u7ba1
p5059
(dp5060
g4635
I1
sg4636
I248
ssVchinaliberal
p5061
(dp5062
g4635
I1
sg4636
I372
ssV\u6587
p5063
(dp5064
g4635
I6
sg4636
I129
ssV\u8fa9
p5065
(dp5066
g4635
I2
sg4636
I149
ssV\u0628
p5067
(dp5068
g4635
I1
sg4636
I623
ssV\u8d2a
p5069
(dp5070
g4635
I1
sg4636
I635
ssV\u83b1
p5071
(dp5072
g4635
I1
sg4636
I444
ssV\u5230
p5073
(dp5074
g4635
I1
sg4636
I541
ssV\u5434
p5075
(dp5076
g4635
I3
sg4636
I458
ssV\u6e38
p5077
(dp5078
g4635
I2
sg4636
I229
ssV\u8d3a
p5079
(dp5080
g4635
I2
sg4636
I388
ssV\u5b8b
p5081
(dp5082
g4635
I4
sg4636
I259
ssV\u8bc1
p5083
(dp5084
g4635
I2
sg4636
I553
ssV\u6240
p5085
(dp5086
g4635
I1
sg4636
I758
ssV\u75c5
p5087
(dp5088
g4635
I2
sg4636
I50
ssV\u0648
p5089
(dp5090
g4635
I3
sg4636
I244
ssV\u7acb
p5091
(dp5092
g4635
I3
sg4636
I67
ssV\u91cd
p5093
(dp5094
g4635
I1
sg4636
I428
ssV\u884c
p5095
(dp5096
g4635
I2
sg4636
I351
ssV\u674e
p5097
(dp5098
g4635
I16
sg4636
I12
ssV\u9152
p5099
(dp5100
g4635
I1
sg4636
I383
ssVzhengjianwang
p5101
(dp5102
g4635
I1
sg4636
I314
ssV\u8700
p5103
(dp5104
g4635
I1
sg4636
I520
ssV\u575e
p5105
(dp5106
g4635
I1
sg4636
I445
ssV\u4ee3
p5107
(dp5108
g4635
I5
sg4636
I163
ssV\u5de5
p5109
(dp5110
g4635
I2
sg4636
I218
ssV\u6c64
p5111
(dp5112
g4635
I1
sg4636
I54
ssV\u5b66
p5113
(dp5114
g4635
I20
sg4636
I77
ssV\u97e9
p5115
(dp5116
g4635
I1
sg4636
I201
ssV\u5668
p5117
(dp5118
g4635
I1
sg4636
I547
ssV\u6f6e
p5119
(dp5120
g4635
I11
sg4636
I78
ssV\u532a
p5121
(dp5122
g4635
I1
sg4636
I648
ssV\u57f9
p5123
(dp5124
g4635
I2
sg4636
I432
ssV\u51fd
p5125
(dp5126
g4635
I1
sg4636
I328
ssV\u677e
p5127
(dp5128
g4635
I1
sg4636
I394
ssV\u4e03
p5129
(dp5130
g4635
I1
sg4636
I556
ssV\u5386
p5131
(dp5132
g4635
I1
sg4636
I509
ssV\u63ed
p5133
(dp5134
g4635
I1
sg4636
I486
ssV\u8d8a
p5135
(dp5136
g4635
I1
sg4636
I124
ssV\u5c0f
p5137
(dp5138
g4635
I6
sg4636
I101
ssV\u7f8e
p5139
(dp5140
g4635
I1
sg4636
I736
ssV\u4e13
p5141
(dp5142
g4635
I3
sg4636
I264
ssV89
p5143
(dp5144
g4635
I8
sg4636
I99
ssV\u7396
p5145
(dp5146
g4635
I2
sg4636
I515
ssV\u9645
p5147
(dp5148
g4635
I2
sg4636
I200
ssV\u52a0
p5149
(dp5150
g4635
I1
sg4636
I668
ssV\u0633
p5151
(dp5152
g4635
I3
sg4636
I240
ssV\u8d35
p5153
(dp5154
g4635
I1
sg4636
I403
ssV\u8cb4
p5155
(dp5156
g4635
I1
sg4636
I260
ssV\u5bb6
p5157
(dp5158
g4635
I8
sg4636
I449
ssV\u5f39
p5159
(dp5160
g4635
I2
sg4636
I469
ssV\u60bc
p5161
(dp5162
g4635
I2
sg4636
I567
ssV\u7a74
p5163
(dp5164
g4635
I1
sg4636
I600
ssV\u5341
p5165
(dp5166
g4635
I5
sg4636
I142
ssVzhengjian
p5167
(dp5168
g4635
I1
sg4636
I609
ssV\u6cc4
p5169
(dp5170
g4635
I1
sg4636
I294
ssV\u5047
p5171
(dp5172
g4635
I1
sg4636
I764
ssV\u4f20
p5173
(dp5174
g4635
I1
sg4636
I594
ssV\u624b
p5175
(dp5176
g4635
I3
sg4636
I74
ssV\u5176
p5177
(dp5178
g4635
I2
sg4636
I639
ssVfree
p5179
(dp5180
g4635
I2
sg4636
I371
ssV\u57ce
p5181
(dp5182
g4635
I1
sg4636
I523
ssV\u72d0
p5183
(dp5184
g4635
I1
sg4636
I710
ssV\u6653
p5185
(dp5186
g4635
I2
sg4636
I321
ssV\u8857
p5187
(dp5188
g4635
I1
sg4636
I655
ssV\u53d6
p5189
(dp5190
g4635
I2
sg4636
I203
ssV\u4f59
p5191
(dp5192
g4635
I1
sg4636
I339
ssV\u6c5f
p5193
(dp5194
g4635
I25
sg4636
I48
ssV\u8fde
p5195
(dp5196
g4635
I1
sg4636
I378
ssV\u7ae0
p5197
(dp5198
g4635
I2
sg4636
I285
ssV\u9663
p5199
(dp5200
g4635
I1
sg4636
I706
ssV\u9769
p5201
(dp5202
g4635
I4
sg4636
I46
ssV\u96e8
p5203
(dp5204
g4635
I1
sg4636
I341
ssV\u516d
p5205
(dp5206
g4635
I62
sg4636
I1
ssV\u5c6f
p5207
(dp5208
g4635
I1
sg4636
I564
ssV\u77ee
p5209
(dp5210
g4635
I1
sg4636
I289
ssV\u5e73
p5211
(dp5212
g4635
I13
sg4636
I102
ssV\u8d75
p5213
(dp5214
g4635
I7
sg4636
I145
ssV\u4ef6
p5215
(dp5216
g4635
I7
sg4636
I33
ssV\u76f8
p5217
(dp5218
g4635
I1
sg4636
I740
ssV\u65fa
p5219
(dp5220
g4635
I1
sg4636
I173
ssV\u597d
p5221
(dp5222
g4635
I1
sg4636
I443
ssV\u96f6
p5223
(dp5224
g4635
I1
sg4636
I459
ssV\u7a81
p5225
(dp5226
g4635
I2
sg4636
I44
ssV\u5783
p5227
(dp5228
g4635
I1
sg4636
I695
ssV\u5b57
p5229
(dp5230
g4635
I1
sg4636
I640
ssV\u4e89
p5231
(dp5232
g4635
I4
sg4636
I178
ssV\u538b
p5233
(dp5234
g4635
I11
sg4636
I81
ssVminghuinews
p5235
(dp5236
g4635
I1
sg4636
I475
ssV\u660e
p5237
(dp5238
g4635
I1
sg4636
I121
ssV\u5012
p5239
(dp5240
g4635
I4
sg4636
I347
ssV\u8305
p5241
(dp5242
g4635
I1
sg4636
I476
ssV\u82b1
p5243
(dp5244
g4635
I1
sg4636
I753
ssV\u7403
p5245
(dp5246
g4635
I1
sg4636
I732
ssV\u5bab
p5247
(dp5248
g4635
I1
sg4636
I730
ssV\u742a
p5249
(dp5250
g4635
I1
sg4636
I105
ssV\u65af
p5251
(dp5252
g4635
I1
sg4636
I728
ssV\u5e2e
p5253
(dp5254
g4635
I5
sg4636
I207
ssV\u52b1
p5255
(dp5256
g4635
I1
sg4636
I518
ssV\u5236
p5257
(dp5258
g4635
I5
sg4636
I265
ssV\u53bb
p5259
(dp5260
g4635
I2
sg4636
I441
ssV\u5fc3
p5261
(dp5262
g4635
I2
sg4636
I506
ssV\u7a46
p5263
(dp5264
g4635
I1
sg4636
I727
ssV\u66c9
p5265
(dp5266
g4635
I1
sg4636
I721
ssV\u970d
p5267
(dp5268
g4635
I1
sg4636
I588
ssVneckromancer
p5269
(dp5270
g4635
I1
sg4636
I309
ssV\u85cf
p5271
(dp5272
g4635
I8
sg4636
I65
ssV\u5b50
p5273
(dp5274
g4635
I13
sg4636
I30
ssV\u97d3
p5275
(dp5276
g4635
I1
sg4636
I703
ssV\u6052
p5277
(dp5278
g4635
I2
sg4636
I621
ssV\u6cd5
p5279
(dp5280
g4635
I8
sg4636
I91
ssV\u8d54
p5281
(dp5282
g4635
I1
sg4636
I233
ssVlihongzhi
p5283
(dp5284
g4635
I1
sg4636
I508
ssV\u6d2a
p5285
(dp5286
g4635
I1
sg4636
I678
ssV\u6bdb
p5287
(dp5288
g4635
I4
sg4636
I34
ssS'UNK'
p5289
I0
sVzhenshanren
p5290
(dp5291
g4635
I1
sg4636
I246
ssV\u9a74
p5292
(dp5293
g4635
I1
sg4636
I731
ssVb
p5294
(dp5295
g4635
I2
sg4636
I618
ssV\u54e5
p5296
(dp5297
g4635
I1
sg4636
I342
ssV\u6c6a
p5298
(dp5299
g4635
I1
sg4636
I670
ssV\u90ed
p5300
(dp5301
g4635
I2
sg4636
I184
ssV\u516c
p5302
(dp5303
g4635
I5
sg4636
I3
ssV\u666e
p5304
(dp5305
g4635
I1
sg4636
I10
ssV\u82f1
p5306
(dp5307
g4635
I1
sg4636
I275
ssV\u77f3
p5308
(dp5309
g4635
I1
sg4636
I325
ssV\u6574
p5310
(dp5311
g4635
I1
sg4636
I598
ssV\u66f9
p5312
(dp5313
g4635
I1
sg4636
I389
ssVhacking
p5314
(dp5315
g4635
I1
sg4636
I76
ssV\u75ff
p5316
(dp5317
g4635
I1
sg4636
I463
ssV\u767e
p5318
(dp5319
g4635
I1
sg4636
I659
ssV\u5a01
p5320
(dp5321
g4635
I2
sg4636
I38
ssV\u96ea
p5322
(dp5323
g4635
I1
sg4636
I221
ssV\u8c05
p5324
(dp5325
g4635
I1
sg4636
I434
ssV\u8584
p5326
(dp5327
g4635
I2
sg4636
I367
ssV\u4e09
p5328
(dp5329
g4635
I3
sg4636
I219
ssVustibet
p5330
(dp5331
g4635
I1
sg4636
I525
ssV\u6211
p5332
(dp5333
g4635
I2
sg4636
I363
ssVwisalstudio
p5334
(dp5335
g4635
I1
sg4636
I287
ssV610
p5336
(dp5337
g4635
I1
sg4636
I628
ssV\u901d
p5338
(dp5339
g4635
I1
sg4636
I51
ssV\u701b
p5340
(dp5341
g4635
I1
sg4636
I719
ssV\u751f
p5342
(dp5343
g4635
I11
sg4636
I208
ssV\u4e9e
p5344
(dp5345
g4635
I1
sg4636
I404
ssV\u5723
p5346
(dp5347
g4635
I2
sg4636
I596
ssV\u8425
p5348
(dp5349
g4635
I1
sg4636
I503
ssV\u5927
p5350
(dp5351
g4635
I21
sg4636
I90
ssV\u6e29
p5352
(dp5353
g4635
I11
sg4636
I7
ssV\u9646
p5354
(dp5355
g4635
I2
sg4636
I606
ssV\u652f
p5356
(dp5357
g4635
I1
sg4636
I384
ssV\u5e9c
p5358
(dp5359
g4635
I1
sg4636
I542
ssV\u8bb0
p5360
(dp5361
g4635
I5
sg4636
I437
ssV\u961f
p5362
(dp5363
g4635
I3
sg4636
I301
ssV\u4e39
p5364
(dp5365
g4635
I2
sg4636
I576
ssVcrestbone
p5366
(dp5367
g4635
I1
sg4636
I304
ssV\u53cb
p5368
(dp5369
g4635
I1
sg4636
I113
ssV\u653f
p5370
(dp5371
g4635
I15
sg4636
I9
ssV\u06be
p5372
(dp5373
g4635
I2
sg4636
I625
ssV\u6743
p5374
(dp5375
g4635
I7
sg4636
I183
ssV\u5947
p5376
(dp5377
g4635
I1
sg4636
I595
ssV\u4e49
p5378
(dp5379
g4635
I2
sg4636
I335
ssVkao
p5380
(dp5381
g4635
I1
sg4636
I539
ssV\u654f
p5382
(dp5383
g4635
I2
sg4636
I528
ssV\u754c
p5384
(dp5385
g4635
I1
sg4636
I461
ssV\u6251
p5386
(dp5387
g4635
I1
sg4636
I654
ssV\u5f53
p5388
(dp5389
g4635
I1
sg4636
I582
ssV\u6325
p5390
(dp5391
g4635
I1
sg4636
I587
ssV\u56de
p5392
(dp5393
g4635
I3
sg4636
I530
ssV\u4ed1
p5394
(dp5395
g4635
I1
sg4636
I735
ssVnmis
p5396
(dp5397
g4635
I1
sg4636
I742
ssV\u7167
p5398
(dp5399
g4635
I1
sg4636
I447
ssV\u5750
p5400
(dp5401
g4635
I1
sg4636
I422
ssV\u536b
p5402
(dp5403
g4635
I1
sg4636
I680
ssV\u706d
p5404
(dp5405
g4635
I2
sg4636
I396
ssV\u53fc
p5406
(dp5407
g4635
I1
sg4636
I689
ssV\u53f0
p5408
(dp5409
g4635
I6
sg4636
I406
ssV\u5df4
p5410
(dp5411
g4635
I1
sg4636
I417
ssV\u5177
p5412
(dp5413
g4635
I1
sg4636
I722
ssV\u6b7b
p5414
(dp5415
g4635
I3
sg4636
I482
ssV\u957f
p5416
(dp5417
g4635
I1
sg4636
I276
ssV\u66fe
p5418
(dp5419
g4635
I7
sg4636
I189
ssV\u8083
p5420
(dp5421
g4635
I1
sg4636
I599
ssV\u5e0c
p5422
(dp5423
g4635
I1
sg4636
I700
ssV\u9093
p5424
(dp5425
g4635
I6
sg4636
I100
ssV\u5712
p5426
(dp5427
g4635
I1
sg4636
I572
ssV\u5395
p5428
(dp5429
g4635
I1
sg4636
I477
ssV\u6e2f
p5430
(dp5431
g4635
I1
sg4636
I379
ssV\u6697
p5432
(dp5433
g4635
I2
sg4636
I257
ssV\u7199
p5434
(dp5435
g4635
I2
sg4636
I368
ssV\u5c9b
p5436
(dp5437
g4635
I1
sg4636
I775
ssV\u4f9d
p5438
(dp5439
g4635
I1
sg4636
I636
ssV\u4e1c
p5440
(dp5441
g4635
I2
sg4636
I43
ssV\u529f
p5442
(dp5443
g4635
I3
sg4636
I500
ssVclockgemstone
p5444
(dp5445
g4635
I1
sg4636
I501
ssV\u53a5
p5446
(dp5447
g4635
I1
sg4636
I45
ssV\u4ea7
p5448
(dp5449
g4635
I13
sg4636
I181
ssV\u9526
p5450
(dp5451
g4635
I3
sg4636
I423
ssVdick
p5452
(dp5453
g4635
I1
sg4636
I550
ssV\u062c
p5454
(dp5455
g4635
I1
sg4636
I131
ssV\u592e
p5456
(dp5457
g4635
I1
sg4636
I643
ssV\u8389
p5458
(dp5459
g4635
I2
sg4636
I433
ssV\u9732
p5460
(dp5461
g4635
I1
sg4636
I487
ssV\u5eb7
p5462
(dp5463
g4635
I3
sg4636
I308
ssVqiangjian
p5464
(dp5465
g4635
I1
sg4636
I352
ssV\u6838
p5466
(dp5467
g4635
I2
sg4636
I505
ssV\u6cbb
p5468
(dp5469
g4635
I3
sg4636
I120
ssV\u533a
p5470
(dp5471
g4635
I1
sg4636
I220
ssV\u8fbd
p5472
(dp5473
g4635
I1
sg4636
I585
ssV\u52bf
p5474
(dp5475
g4635
I1
sg4636
I254
ssV\u56b4
p5476
(dp5477
g4635
I1
sg4636
I493
ssV\u5c40
p5478
(dp5479
g4635
I3
sg4636
I253
ssV\u6742
p5480
(dp5481
g4635
I1
sg4636
I770
ssVtriangle
p5482
(dp5483
g4635
I1
sg4636
I575
ssVsuckpenis
p5484
(dp5485
g4635
I1
sg4636
I305
ssV\u5546
p5486
(dp5487
g4635
I1
sg4636
I85
ssV\u6848
p5488
(dp5489
g4635
I2
sg4636
I538
ssV\u5fcd
p5490
(dp5491
g4635
I1
sg4636
I702
ssV\u8dd1
p5492
(dp5493
g4635
I1
sg4636
I160
ssV\u58d3
p5494
(dp5495
g4635
I2
sg4636
I485
ssV\u9752
p5496
(dp5497
g4635
I1
sg4636
I592
ssV\u8d56
p5498
(dp5499
g4635
I1
sg4636
I754
ssV15
p5500
(dp5501
g4635
I1
sg4636
I373
ssVdu
p5502
(dp5503
g4635
I1
sg4636
I273
ssV\u4fdd
p5504
(dp5505
g4635
I1
sg4636
I611
ssV\u803b
p5506
(dp5507
g4635
I1
sg4636
I682
ssV\u795e
p5508
(dp5509
g4635
I1
sg4636
I456
ssV\u5c60
p5510
(dp5511
g4635
I13
sg4636
I168
ssV\u7f62
p5512
(dp5513
g4635
I6
sg4636
I217
ssV\u8a18
p5514
(dp5515
g4635
I1
sg4636
I471
ssV\u7ee7
p5516
(dp5517
g4635
I1
sg4636
I262
ssV\u8d66
p5518
(dp5519
g4635
I1
sg4636
I755
ssV\u8868
p5520
(dp5521
g4635
I1
sg4636
I430
ssV\u6b6a
p5522
(dp5523
g4635
I1
sg4636
I344
ssVguichuideng
p5524
(dp5525
g4635
I1
sg4636
I630
ssV\u7aef
p5526
(dp5527
g4635
I1
sg4636
I568
ssV\u6df1
p5528
(dp5529
g4635
I1
sg4636
I263
ssV\u5a74
p5530
(dp5531
g4635
I1
sg4636
I52
ssg1807
(dp5532
g4635
I3
sg4636
I374
ssV\u7cfb
p5533
(dp5534
g4635
I2
sg4636
I464
ssV\u8ffd
p5535
(dp5536
g4635
I1
sg4636
I198
ssV\u52ff
p5537
(dp5538
g4635
I1
sg4636
I768
ssV\u5c14
p5539
(dp5540
g4635
I1
sg4636
I699
ssV\u5305
p5541
(dp5542
g4635
I2
sg4636
I235
ssVhuanet
p5543
(dp5544
g4635
I1
sg4636
I626
ssV\u70ed
p5545
(dp5546
g4635
I1
sg4636
I529
ssV\u670d
p5547
(dp5548
g4635
I1
sg4636
I231
ssV\u4e8c
p5549
(dp5550
g4635
I2
sg4636
I617
ssV\u5511
p5551
(dp5552
g4635
I1
sg4636
I734
ssV\u5f92
p5553
(dp5554
g4635
I1
sg4636
I651
ssV\u6218
p5555
(dp5556
g4635
I1
sg4636
I408
ssVyolida
p5557
(dp5558
g4635
I1
sg4636
I687
ssV\u671d
p5559
(dp5560
g4635
I1
sg4636
I472
ssV\u529b
p5561
(dp5562
g4635
I5
sg4636
I455
ssV\u9ec4
p5563
(dp5564
g4635
I1
sg4636
I691
ssV\u72f1
p5565
(dp5566
g4635
I1
sg4636
I641
ssV\u711a
p5567
(dp5568
g4635
I2
sg4636
I320
ssV\u9b25
p5569
(dp5570
g4635
I1
sg4636
I258
ssV\u8edf
p5571
(dp5572
g4635
I1
sg4636
I746
ssV\u0627
p5573
(dp5574
g4635
I9
sg4636
I136
ssV\u5929
p5575
(dp5576
g4635
I26
sg4636
I26
ssV08
p5577
(dp5578
g4635
I1
sg4636
I283
ssV\u5baa
p5579
(dp5580
g4635
I2
sg4636
I284
ssV\u4eac
p5581
(dp5582
g4635
I2
sg4636
I713
ssVkefu
p5583
(dp5584
g4635
I1
sg4636
I193
ssV\u7531
p5585
(dp5586
g4635
I6
sg4636
I290
ssVchinesenewsnet
p5587
(dp5588
g4635
I1
sg4636
I605
ssV\u70b8
p5589
(dp5590
g4635
I4
sg4636
I468
ssV\u6bba
p5591
(dp5592
g4635
I3
sg4636
I354
ssVlun
p5593
(dp5594
g4635
I1
sg4636
I527
ssV8964
p5595
(dp5596
g4635
I2
sg4636
I302
ssV\u6d41
p5597
(dp5598
g4635
I1
sg4636
I744
ssV\u8ba1
p5599
(dp5600
g4635
I2
sg4636
I386
ssV\u5149
p5601
(dp5602
g4635
I4
sg4636
I109
ssV\u83ca
p5603
(dp5604
g4635
I1
sg4636
I692
ssV\u6551
p5605
(dp5606
g4635
I1
sg4636
I559
ssV\u9053
p5607
(dp5608
g4635
I1
sg4636
I402
ssV\u7fd2
p5609
(dp5610
g4635
I4
sg4636
I234
ssV\u5355
p5611
(dp5612
g4635
I1
sg4636
I608
ssVji
p5613
(dp5614
g4635
I1
sg4636
I696
ssV\u8bda
p5615
(dp5616
g4635
I1
sg4636
I715
ssV\u7edc
p5617
(dp5618
g4635
I1
sg4636
I462
ssV\u8863
p5619
(dp5620
g4635
I1
sg4636
I87
ssV\u52e4
p5621
(dp5622
g4635
I1
sg4636
I251
ssV\u5de6
p5623
(dp5624
g4635
I2
sg4636
I232
ssVadmin
p5625
(dp5626
g4635
I1
sg4636
I747
ssV\u90e8
p5627
(dp5628
g4635
I3
sg4636
I300
ssV\u5f6d
p5629
(dp5630
g4635
I3
sg4636
I255
ssV\u826f
p5631
(dp5632
g4635
I2
sg4636
I578
ssVpaper64
p5633
(dp5634
g4635
I1
sg4636
I540
ssVwstaiji
p5635
(dp5636
g4635
I1
sg4636
I610
ssV\u5cf0
p5637
(dp5638
g4635
I2
sg4636
I318
ssV\u5375
p5639
(dp5640
g4635
I1
sg4636
I350
ssV\u65f6
p5641
(dp5642
g4635
I1
sg4636
I338
ssV\u5bfa
p5643
(dp5644
g4635
I1
sg4636
I167
ssVcom
p5645
(dp5646
g4635
I1
sg4636
I288
ssV\u9c81
p5647
(dp5648
g4635
I1
sg4636
I324
ssV\u7d00
p5649
(dp5650
g4635
I3
sg4636
I557
ssV\u5983
p5651
(dp5652
g4635
I2
sg4636
I261
ssV\u5e02
p5653
(dp5654
g4635
I3
sg4636
I376
ssV\u7406
p5655
(dp5656
g4635
I1
sg4636
I743
ssV\u958b
p5657
(dp5658
g4635
I1
sg4636
I4
ssV\u638f
p5659
(dp5660
g4635
I1
sg4636
I188
ssV\u5510
p5661
(dp5662
g4635
I2
sg4636
I59
ssVincest
p5663
(dp5664
g4635
I1
sg4636
I616
ssVwangce
p5665
(dp5666
g4635
I1
sg4636
I524
ssV64
p5667
(dp5668
g4635
I6
sg4636
I280
ssV\u6797
p5669
(dp5670
g4635
I4
sg4636
I196
ssV\u5899
p5671
(dp5672
g4635
I1
sg4636
I126
ssV\u6d9b
p5673
(dp5674
g4635
I4
sg4636
I424
ssV\u521a
p5675
(dp5676
g4635
I3
sg4636
I390
ssV\u539f
p5677
(dp5678
g4635
I1
sg4636
I489
ssV\u5584
p5679
(dp5680
g4635
I1
sg4636
I701
ssV\u62a5
p5681
(dp5682
g4635
I2
sg4636
I152
ssVultrasurf
p5683
(dp5684
g4635
I1
sg4636
I767
ssV\u9928
p5685
(dp5686
g4635
I1
sg4636
I558
ssV\u5e86
p5687
(dp5688
g4635
I4
sg4636
I644
ssVbbc
p5689
(dp5690
g4635
I1
sg4636
I250
ssV\u73af
p5691
(dp5692
g4635
I1
sg4636
I661
ssV\u7532
p5693
(dp5694
g4635
I1
sg4636
I410
ssV\u62b5
p5695
(dp5696
g4635
I1
sg4636
I778
ssV\u5fb7
p5697
(dp5698
g4635
I4
sg4636
I213
ssVcreaders
p5699
(dp5700
g4635
I1
sg4636
I619
ssV\u70b9
p5701
(dp5702
g4635
I1
sg4636
I709
ssV\u8138
p5703
(dp5704
g4635
I1
sg4636
I474
ssV\u8bbf
p5705
(dp5706
g4635
I1
sg4636
I697
ssV\u7834
p5707
(dp5708
g4635
I1
sg4636
I662
ssV\u0642
p5709
(dp5710
g4635
I1
sg4636
I139
ssV\u6446
p5711
(dp5712
g4635
I1
sg4636
I761
ssV6-4tianwang
p5713
(dp5714
g4635
I1
sg4636
I574
ssV\u6dcb
p5715
(dp5716
g4635
I1
sg4636
I765
ssV\u52d5
p5717
(dp5718
g4635
I1
sg4636
I399
ssV\u5fd7
p5719
(dp5720
g4635
I7
sg4636
I56
ssV\u7edd
p5721
(dp5722
g4635
I3
sg4636
I614
ssV\u4f5c
p5723
(dp5724
g4635
I2
sg4636
I632
ssV\u4ee4
p5725
(dp5726
g4635
I2
sg4636
I385
ssV\u593a
p5727
(dp5728
g4635
I1
sg4636
I407
ssV\u6389
p5729
(dp5730
g4635
I1
sg4636
I552
ssV\u5168
p5731
(dp5732
g4635
I3
sg4636
I375
ssV\u9ee8
p5733
(dp5734
g4635
I2
sg4636
I98
ssV\u56ed
p5735
(dp5736
g4635
I2
sg4636
I498
ssV\u81f3
p5737
(dp5738
g4635
I1
sg4636
I330
ssV\u5e72
p5739
(dp5740
g4635
I4
sg4636
I607
ssV\u60e8
p5741
(dp5742
g4635
I1
sg4636
I653
ssV\u95fb
p5743
(dp5744
g4635
I5
sg4636
I24
ssV\u56fd
p5745
(dp5746
g4635
I15
sg4636
I40
ssV\u5bff
p5747
(dp5748
g4635
I1
sg4636
I480
ssV\u9580
p5749
(dp5750
g4635
I1
sg4636
I495
ssV\u9707
p5751
(dp5752
g4635
I1
sg4636
I158
ssV\u9009
p5753
(dp5754
g4635
I1
sg4636
I11
ssV\u5988
p5755
(dp5756
g4635
I6
sg4636
I333
ssV\u950b
p5757
(dp5758
g4635
I1
sg4636
I683
ssV\u4e0d
p5759
(dp5760
g4635
I2
sg4636
I164
ssV\u708e
p5761
(dp5762
g4635
I1
sg4636
I613
ssV\u6c11
p5763
(dp5764
g4635
I23
sg4636
I49
ssV\u4e92
p5765
(dp5766
g4635
I1
sg4636
I435
ssVtibet
p5767
(dp5768
g4635
I2
sg4636
I370
ssVxinsheng
p5769
(dp5770
g4635
I1
sg4636
I650
ssV\u9971
p5771
(dp5772
g4635
I1
sg4636
I669
ssV\u7ea2
p5773
(dp5774
g4635
I3
sg4636
I125
ssV\u5ba4
p5775
(dp5776
g4635
I1
sg4636
I629
ssV\u94a6
p5777
(dp5778
g4635
I1
sg4636
I708
ssV\u601d
p5779
(dp5780
g4635
I1
sg4636
I270
ssV\u7d2b
p5781
(dp5782
g4635
I8
sg4636
I146
ssV\u4e2d
p5783
(dp5784
g4635
I28
sg4636
I70
ssV\u65b0
p5785
(dp5786
g4635
I16
sg4636
I23
ssV\u4eb2
p5787
(dp5788
g4635
I2
sg4636
I115
ssV\u611f
p5789
(dp5790
g4635
I1
sg4636
I663
ssV\u5f37
p5791
(dp5792
g4635
I1
sg4636
I704
ssV\u9648
p5793
(dp5794
g4635
I5
sg4636
I329
ssg1864
(dp5795
g4635
I1
sg4636
I392
ssV\u6d3b
p5796
(dp5797
g4635
I1
sg4636
I545
ssV\u4e3d
p5798
(dp5799
g4635
I1
sg4636
I439
ssV\u5143
p5800
(dp5801
g4635
I3
sg4636
I155
ssVjiaochuang
p5802
(dp5803
g4635
I1
sg4636
I688
ssV\u8bc4
p5804
(dp5805
g4635
I6
sg4636
I197
ssV\u6458
p5806
(dp5807
g4635
I1
sg4636
I546
ssV\u79cd
p5808
(dp5809
g4635
I1
sg4636
I448
ssV\u6d4b
p5810
(dp5811
g4635
I1
sg4636
I638
ssV\u9b4f
p5812
(dp5813
g4635
I1
sg4636
I712
ssV\u98ce
p5814
(dp5815
g4635
I3
sg4636
I315
ssV\u8a55
p5816
(dp5817
g4635
I1
sg4636
I96
ssV\u7f57
p5818
(dp5819
g4635
I2
sg4636
I634
ssV\u9127
p5820
(dp5821
g4635
I2
sg4636
I733
ssV\u4e5d
p5822
(dp5823
g4635
I14
sg4636
I95
ssV\u65e0
p5824
(dp5825
g4635
I1
sg4636
I460
ssV\u56e2
p5826
(dp5827
g4635
I5
sg4636
I119
ssV\u53e4
p5828
(dp5829
g4635
I1
sg4636
I675
ssV\u7389
p5830
(dp5831
g4635
I1
sg4636
I726
ssV\u8650
p5832
(dp5833
g4635
I1
sg4636
I724
ssV\u8869
p5834
(dp5835
g4635
I1
sg4636
I349
ssV\u5c71
p5836
(dp5837
g4635
I3
sg4636
I63
ssVtibetalk
p5838
(dp5839
g4635
I1
sg4636
I536
ssV\u5973
p5840
(dp5841
g4635
I2
sg4636
I211
ssV\u63f4
p5842
(dp5843
g4635
I1
sg4636
I673
ssV\u967d
p5844
(dp5845
g4635
I1
sg4636
I517
ssV\u4e00
p5846
(dp5847
g4635
I4
sg4636
I295
ssV\u5185
p5848
(dp5849
g4635
I2
sg4636
I225
ssV\u7487
p5850
(dp5851
g4635
I1
sg4636
I450
ssV\u5b89
p5852
(dp5853
g4635
I29
sg4636
I27
ssV\u4e8b
p5854
(dp5855
g4635
I8
sg4636
I32
ssVchinamz
p5856
(dp5857
g4635
I1
sg4636
I694
ssV\u830e
p5858
(dp5859
g4635
I1
sg4636
I649
ssVfeelmistone
p5860
(dp5861
g4635
I1
sg4636
I777
ssV\u5218
p5862
(dp5863
g4635
I7
sg4636
I61
ssV\u591a
p5864
(dp5865
g4635
I2
sg4636
I21
ssV\u7522
p5866
(dp5867
g4635
I1
sg4636
I97
ssV\u8086
p5868
(dp5869
g4635
I3
sg4636
I562
ssV\u94a7
p5870
(dp5871
g4635
I1
sg4636
I672
ssV\u73b0
p5872
(dp5873
g4635
I1
sg4636
I488
ssV\u6fa4
p5874
(dp5875
g4635
I3
sg4636
I549
ssV\u592a
p5876
(dp5877
g4635
I6
sg4636
I29
ssV\u7dad
p5878
(dp5879
g4635
I1
sg4636
I571
ssV\u6d32
p5880
(dp5881
g4635
I4
sg4636
I337
ssV\u5834
p5882
(dp5883
g4635
I1
sg4636
I497
ssV\u9ebb
p5884
(dp5885
g4635
I4
sg4636
I256
ssV\u793a
p5886
(dp5887
g4635
I2
sg4636
I37
ssV\u5c3c
p5888
(dp5889
g4635
I1
sg4636
I418
ssV\u6b3e
p5890
(dp5891
g4635
I1
sg4636
I589
ssV\u06cb
p5892
(dp5893
g4635
I2
sg4636
I245
ssVnacb
p5894
(dp5895
g4635
I1
sg4636
I465
ssV\u5ee3
p5896
(dp5897
g4635
I1
sg4636
I496
ssV\u761f
p5898
(dp5899
g4635
I1
sg4636
I717
ssV\u534e
p5900
(dp5901
g4635
I3
sg4636
I206
ssV\u8fd1
p5902
(dp5903
g4635
I3
sg4636
I466
ssV\u4e50
p5904
(dp5905
g4635
I1
sg4636
I685
ssVblowjob
p5906
(dp5907
g4635
I1
sg4636
I674
ssV\u8054
p5908
(dp5909
g4635
I2
sg4636
I282
ssV\u53d9
p5910
(dp5911
g4635
I1
sg4636
I419
ssV\u65e5
p5912
(dp5913
g4635
I6
sg4636
I345
ssV\u56db
p5914
(dp5915
g4635
I61
sg4636
I2
ssV\u515a
p5916
(dp5917
g4635
I33
sg4636
I31
ssV\u5ddd
p5918
(dp5919
g4635
I1
sg4636
I391
ssVasshole
p5920
(dp5921
g4635
I1
sg4636
I537
ssV\u98df
p5922
(dp5923
g4635
I4
sg4636
I615
ssV\u4fe1
p5924
(dp5925
g4635
I3
sg4636
I5
ssV\u4e60
p5926
(dp5927
g4635
I8
sg4636
I269
ssV\u5766
p5928
(dp5929
g4635
I6
sg4636
I194
ssV\u6b66
p5930
(dp5931
g4635
I2
sg4636
I322
ssV\u95ed
p5932
(dp5933
g4635
I1
sg4636
I334
ssV\u67f1
p5934
(dp5935
g4635
I1
sg4636
I382
ssV\u4e70
p5936
(dp5937
g4635
I1
sg4636
I291
ssV\u5212
p5938
(dp5939
g4635
I2
sg4636
I387
ssV\u613f
p5940
(dp5941
g4635
I2
sg4636
I521
ssV\u6668
p5942
(dp5943
g4635
I1
sg4636
I652
ssV\u96fb
p5944
(dp5945
g4635
I1
sg4636
I405
ssV\u9c7c
p5946
(dp5947
g4635
I1
sg4636
I774
ssV\uff01
p5948
(dp5949
g4635
I1
sg4636
I759
ssV\u9884
p5950
(dp5951
g4635
I2
sg4636
I106
ssV\u8309
p5952
(dp5953
g4635
I1
sg4636
I752
ssV\u4e0b
p5954
(dp5955
g4635
I2
sg4636
I457
ssV\u6bcb
p5956
(dp5957
g4635
I1
sg4636
I656
ssV\u6e90
p5958
(dp5959
g4635
I1
sg4636
I751
ssV\u4f1f
p5960
(dp5961
g4635
I2
sg4636
I481
ssV\u561b
p5962
(dp5963
g4635
I1
sg4636
I311
ssV\u8f6e
p5964
(dp5965
g4635
I2
sg4636
I499
ssV\u9c9c
p5966
(dp5967
g4635
I1
sg4636
I19
ssV\u5b9e
p5968
(dp5969
g4635
I2
sg4636
I151
ssV\u7ea0
p5970
(dp5971
g4635
I1
sg4636
I532
ssV\u9e70
p5972
(dp5973
g4635
I1
sg4636
I491
ssV\u52a8
p5974
(dp5975
g4635
I12
sg4636
I116
ssVjiangdongriji
p5976
(dp5977
g4635
I1
sg4636
I766
ssV\u93ae
p5978
(dp5979
g4635
I2
sg4636
I484
ssV\u6731
p5980
(dp5981
g4635
I1
sg4636
I412
ssV\u0649
p5982
(dp5983
g4635
I7
sg4636
I138
ssV\u4e3b
p5984
(dp5985
g4635
I9
sg4636
I35
ssVtriangleboy
p5986
(dp5987
g4635
I1
sg4636
I723
ssV\u87c6
p5988
(dp5989
g4635
I1
sg4636
I180
ssV\u4e4b
p5990
(dp5991
g4635
I4
sg4636
I519
ssV\u91ca
p5992
(dp5993
g4635
I1
sg4636
I566
ssV\u7f51
p5994
(dp5995
g4635
I13
sg4636
I25
ssV\u6253
p5996
(dp5997
g4635
I4
sg4636
I346
ssV\u9ad8
p5998
(dp5999
g4635
I9
sg4636
I209
ssV\u4efb
p6000
(dp6001
g4635
I1
sg4636
I749
ssV\u8165
p6002
(dp6003
g4635
I6
sg4636
I224
ssV\u88e4
p6004
(dp6005
g4635
I1
sg4636
I348
ssVrenminbao
p6006
(dp6007
g4635
I1
sg4636
I411
ssV\u81ea
p6008
(dp6009
g4635
I11
sg4636
I148
ssV\u4f53
p6010
(dp6011
g4635
I2
sg4636
I603
ssV\u8273
p6012
(dp6013
g4635
I1
sg4636
I446
ssV\u5175
p6014
(dp6015
g4635
I1
sg4636
I522
ssV\u5e7b
p6016
(dp6017
g4635
I1
sg4636
I228
ssV\u51fa
p6018
(dp6019
g4635
I3
sg4636
I72
ssV\u8681
p6020
(dp6021
g4635
I1
sg4636
I454
ssV\u5f00
p6022
(dp6023
g4635
I5
sg4636
I360
ssV\u4e2a
p6024
(dp6025
g4635
I2
sg4636
I429
ssV\u5587
p6026
(dp6027
g4635
I1
sg4636
I310
ssV\u5289
p6028
(dp6029
g4635
I1
sg4636
I720
ssV\u900a
p6030
(dp6031
g4635
I1
sg4636
I561
ssV\u5e03
p6032
(dp6033
g4635
I1
sg4636
I716
ssV\u4e91
p6034
(dp6035
g4635
I4
sg4636
I62
ssVnetease
p6036
(dp6037
g4635
I1
sg4636
I739
ssV\u6597
p6038
(dp6039
g4635
I3
sg4636
I177
ssV\u4e16
p6040
(dp6041
g4635
I4
sg4636
I13
ssV\u901a
p6042
(dp6043
g4635
I1
sg4636
I84
ssVrenmingbao
p6044
(dp6045
g4635
I1
sg4636
I741
ssV\u5f20
p6046
(dp6047
g4635
I3
sg4636
I431
ssV\u0626
p6048
(dp6049
g4635
I5
sg4636
I135
ssV\u653e
p6050
(dp6051
g4635
I1
sg4636
I769
ssV1989
p6052
(dp6053
g4635
I4
sg4636
I361
ssV\u5730
p6054
(dp6055
g4635
I1
sg4636
I157
ssV\u0632
p6056
(dp6057
g4635
I1
sg4636
I583
ssVfalun
p6058
(dp6059
g4635
I1
sg4636
I504
ssV\u4ec1
p6060
(dp6061
g4635
I1
sg4636
I171
ssV\u6740
p6062
(dp6063
g4635
I11
sg4636
I169
ssV\u5c42
p6064
(dp6065
g4635
I2
sg4636
I646
ssV\u60c5
p6066
(dp6067
g4635
I1
sg4636
I565
ssV\u6dc7
p6068
(dp6069
g4635
I1
sg4636
I93
ssV\u0646
p6070
(dp6071
g4635
I3
sg4636
I133
ssV\u64cd
p6072
(dp6073
g4635
I4
sg4636
I393
ssV\u6b63
p6074
(dp6075
g4635
I5
sg4636
I202
ssV\u76d1
p6076
(dp6077
g4635
I2
sg4636
I554
ssV\u9f50
p6078
(dp6079
g4635
I1
sg4636
I323
ssV163
p6080
(dp6081
g4635
I1
sg4636
I748
ssV\u65d7
p6082
(dp6083
g4635
I1
sg4636
I223
ssV\u5b58
p6084
(dp6085
g4635
I1
sg4636
I381
ssV\u71df
p6086
(dp6087
g4635
I1
sg4636
I707
ssV\u4f60
p6088
(dp6089
g4635
I7
sg4636
I332
ssV\u53e3
p6090
(dp6091
g4635
I1
sg4636
I512
ssVminghui
p6092
(dp6093
g4635
I1
sg4636
I750
ssV\u4e66
p6094
(dp6095
g4635
I3
sg4636
I453
ssV\u6613
p6096
(dp6097
g4635
I2
sg4636
I427
ssV\u53f3
p6098
(dp6099
g4635
I1
sg4636
I117
ssVallah
p6100
(dp6101
g4635
I1
sg4636
I686
ssV\u5b78
p6102
(dp6103
g4635
I2
sg4636
I397
ssV\u7ffb
p6104
(dp6105
g4635
I5
sg4636
I473
ssV\u987a
p6106
(dp6107
g4635
I1
sg4636
I319
ssV\u6cfd
p6108
(dp6109
g4635
I8
sg4636
I42
ssV\u4e01
p6110
(dp6111
g4635
I1
sg4636
I88
ssV\u9510
p6112
(dp6113
g4635
I1
sg4636
I645
ssV\u5507
p6114
(dp6115
g4635
I1
sg4636
I356
ssV\u4e86
p6116
(dp6117
g4635
I3
sg4636
I483
ssV\u543e
p6118
(dp6119
g4635
I1
sg4636
I698
ssV\u5b88
p6120
(dp6121
g4635
I1
sg4636
I415
ssV\u540d
p6122
(dp6123
g4635
I2
sg4636
I601
ssV\u5f90
p6124
(dp6125
g4635
I1
sg4636
I128
ssVhrichina
p6126
(dp6127
g4635
I1
sg4636
I756
ssV\u5b98
p6128
(dp6129
g4635
I7
sg4636
I210
ssVshit
p6130
(dp6131
g4635
I2
sg4636
I513
ssV\u529e
p6132
(dp6133
g4635
I4
sg4636
I249
ssV\u7d27
p6134
(dp6135
g4635
I1
sg4636
I187
ssV\u5229
p6136
(dp6137
g4635
I2
sg4636
I420
ssV\u63a8
p6138
(dp6139
g4635
I4
sg4636
I548
ssV\u90aa
p6140
(dp6141
g4635
I1
sg4636
I362
ssV\u8bcd
p6142
(dp6143
g4635
I2
sg4636
I664
ssV\u6cc9
p6144
(dp6145
g4635
I2
sg4636
I580
ssV\u8bb8
p6146
(dp6147
g4635
I1
sg4636
I563
ssV\u513f
p6148
(dp6149
g4635
I1
sg4636
I53
ssV\u9547
p6150
(dp6151
g4635
I12
sg4636
I80
ssV\u96c6
p6152
(dp6153
g4635
I2
sg4636
I110
ssV\u78ca
p6154
(dp6155
g4635
I1
sg4636
I89
ssV\u8fd0
p6156
(dp6157
g4635
I18
sg4636
I79
ssV\u4ed6
p6158
(dp6159
g4635
I1
sg4636
I690
ssV\u53d8
p6160
(dp6161
g4635
I2
sg4636
I647
ssV\u5fe0
p6162
(dp6163
g4635
I1
sg4636
I591
ssV\u8363
p6164
(dp6165
g4635
I2
sg4636
I252
ssV\u6ce2
p6166
(dp6167
g4635
I6
sg4636
I316
ssV\u51e4
p6168
(dp6169
g4635
I1
sg4636
I112
ssVdajiyuan
p6170
(dp6171
g4635
I1
sg4636
I773
ssV\u72ee
p6172
(dp6173
g4635
I1
sg4636
I222
ssV\u4e71
p6174
(dp6175
g4635
I5
sg4636
I170
ssV\u8ff0
p6176
(dp6177
g4635
I1
sg4636
I366
ssV\u94f2
p6178
(dp6179
g4635
I1
sg4636
I492
ssV\u6d77
p6180
(dp6181
g4635
I8
sg4636
I176
ssV\u5ef6
p6182
(dp6183
g4635
I2
sg4636
I192
ssV\u7279
p6184
(dp6185
g4635
I2
sg4636
I236
ssV\u56fe
p6186
(dp6187
g4635
I1
sg4636
I82
ssV\u547d
p6188
(dp6189
g4635
I3
sg4636
I47
ssV\u897f
p6190
(dp6191
g4635
I7
sg4636
I64
sssS'_inverted_index'
p6192
(lp6193
(lp6194
a(lp6195
(I1
I0
I00
tp6196
a(I24
I0
I00
tp6197
a(I37
I0
I00
tp6198
a(I51
I3
I00
tp6199
a(I55
I2
I00
tp6200
a(I67
I0
I00
tp6201
a(I75
I5
I00
tp6202
a(I81
I0
I00
tp6203
a(I124
I0
I00
tp6204
a(I142
I0
I00
tp6205
a(I158
I0
I00
tp6206
a(I161
I0
I00
tp6207
a(I172
I0
I00
tp6208
a(I182
I2
I00
tp6209
a(I193
I0
I00
tp6210
a(I196
I0
I00
tp6211
a(I204
I0
I00
tp6212
a(I207
I0
I00
tp6213
a(I220
I2
I00
tp6214
a(I249
I0
I00
tp6215
a(I255
I0
I00
tp6216
a(I266
I0
I00
tp6217
a(I269
I0
I00
tp6218
a(I275
I0
I00
tp6219
a(I281
I0
I00
tp6220
a(I282
I2
I00
tp6221
a(I284
I0
I00
tp6222
a(I288
I0
I00
tp6223
a(I298
I0
I00
tp6224
a(I306
I0
I00
tp6225
a(I320
I0
I00
tp6226
a(I323
I0
I00
tp6227
a(I325
I0
I00
tp6228
a(I326
I0
I00
tp6229
a(I329
I3
I00
tp6230
a(I332
I4
I00
tp6231
a(I335
I0
I00
tp6232
a(I340
I0
I00
tp6233
a(I348
I0
I00
tp6234
a(I368
I0
I00
tp6235
a(I371
I0
I00
tp6236
a(I378
I0
I00
tp6237
a(I379
I0
I00
tp6238
a(I395
I0
I00
tp6239
a(I438
I2
I00
tp6240
a(I465
I0
I00
tp6241
a(I467
I0
I00
tp6242
a(I474
I0
I00
tp6243
a(I496
I0
I00
tp6244
a(I512
I0
I00
tp6245
a(I514
I0
I00
tp6246
a(I516
I0
I00
tp6247
a(I523
I3
I00
tp6248
a(I545
I2
I00
tp6249
a(I546
I0
I00
tp6250
a(I552
I0
I00
tp6251
a(I573
I2
I00
tp6252
a(I580
I0
I00
tp6253
a(I581
I0
I00
tp6254
a(I582
I0
I00
tp6255
a(I592
I2
I00
tp6256
a(I600
I0
I00
tp6257
aa(lp6258
(I1
I1
I00
tp6259
a(I24
I1
I00
tp6260
a(I37
I1
I00
tp6261
a(I51
I4
I00
tp6262
a(I55
I3
I01
tp6263
a(I67
I1
I00
tp6264
a(I75
I6
I01
tp6265
a(I81
I1
I00
tp6266
a(I124
I1
I00
tp6267
a(I142
I1
I00
tp6268
a(I158
I1
I00
tp6269
a(I161
I1
I00
tp6270
a(I172
I1
I00
tp6271
a(I182
I3
I01
tp6272
a(I193
I1
I00
tp6273
a(I196
I1
I00
tp6274
a(I204
I1
I00
tp6275
a(I207
I1
I00
tp6276
a(I220
I3
I01
tp6277
a(I249
I1
I00
tp6278
a(I255
I1
I00
tp6279
a(I266
I1
I00
tp6280
a(I269
I1
I00
tp6281
a(I275
I1
I00
tp6282
a(I281
I1
I00
tp6283
a(I282
I3
I01
tp6284
a(I284
I1
I00
tp6285
a(I288
I1
I00
tp6286
a(I298
I1
I00
tp6287
a(I306
I1
I00
tp6288
a(I320
I1
I00
tp6289
a(I325
I1
I00
tp6290
a(I326
I1
I00
tp6291
a(I329
I4
I01
tp6292
a(I332
I5
I01
tp6293
a(I335
I1
I00
tp6294
a(I340
I1
I00
tp6295
a(I348
I1
I00
tp6296
a(I368
I1
I00
tp6297
a(I371
I1
I00
tp6298
a(I378
I1
I00
tp6299
a(I379
I1
I00
tp6300
a(I395
I1
I00
tp6301
a(I438
I3
I01
tp6302
a(I465
I1
I00
tp6303
a(I467
I1
I00
tp6304
a(I474
I1
I00
tp6305
a(I496
I1
I00
tp6306
a(I512
I1
I00
tp6307
a(I514
I1
I00
tp6308
a(I516
I1
I00
tp6309
a(I523
I4
I01
tp6310
a(I545
I3
I00
tp6311
a(I546
I1
I00
tp6312
a(I552
I1
I00
tp6313
a(I573
I3
I01
tp6314
a(I580
I1
I00
tp6315
a(I581
I1
I00
tp6316
a(I582
I1
I00
tp6317
a(I592
I3
I01
tp6318
a(I600
I1
I00
tp6319
aa(lp6320
(I1
I2
I00
tp6321
a(I352
I4
I00
tp6322
a(I406
I2
I00
tp6323
a(I472
I0
I00
tp6324
a(I546
I2
I00
tp6325
aa(lp6326
(I1
I3
I00
tp6327
aa(lp6328
(I1
I4
I01
tp6329
a(I472
I2
I01
tp6330
a(I546
I4
I01
tp6331
aa(lp6332
(I2
I0
I00
tp6333
a(I70
I0
I00
tp6334
a(I71
I0
I00
tp6335
a(I159
I0
I00
tp6336
a(I166
I0
I00
tp6337
a(I209
I0
I00
tp6338
a(I210
I1
I01
tp6339
a(I230
I0
I00
tp6340
a(I242
I0
I00
tp6341
a(I259
I0
I00
tp6342
a(I273
I0
I00
tp6343
a(I304
I0
I00
tp6344
a(I318
I0
I00
tp6345
a(I365
I0
I00
tp6346
a(I380
I0
I00
tp6347
a(I398
I0
I00
tp6348
a(I409
I0
I00
tp6349
a(I432
I0
I00
tp6350
a(I440
I0
I00
tp6351
a(I462
I0
I00
tp6352
a(I479
I0
I00
tp6353
a(I492
I0
I00
tp6354
a(I502
I0
I00
tp6355
aa(lp6356
(I2
I1
I00
tp6357
a(I94
I0
I00
tp6358
a(I190
I0
I00
tp6359
a(I273
I1
I00
tp6360
a(I304
I1
I01
tp6361
a(I365
I1
I00
tp6362
a(I380
I1
I00
tp6363
a(I432
I1
I00
tp6364
a(I448
I0
I00
tp6365
a(I462
I1
I00
tp6366
a(I535
I0
I00
tp6367
aa(lp6368
(I2
I2
I00
tp6369
a(I62
I2
I00
tp6370
a(I265
I0
I00
tp6371
a(I305
I2
I00
tp6372
a(I435
I4
I00
tp6373
a(I552
I2
I00
tp6374
aa(lp6375
(I2
I3
I01
tp6376
a(I42
I2
I00
tp6377
a(I68
I3
I00
tp6378
a(I211
I0
I00
tp6379
a(I305
I3
I01
tp6380
a(I309
I2
I00
tp6381
a(I324
I3
I01
tp6382
a(I357
I1
I00
tp6383
a(I365
I2
I00
tp6384
a(I380
I2
I00
tp6385
a(I432
I3
I01
tp6386
a(I435
I5
I01
tp6387
a(I447
I2
I00
tp6388
a(I550
I6
I00
tp6389
a(I578
I2
I00
tp6390
aa(lp6391
(I3
I0
I00
tp6392
aa(lp6393
(I3
I1
I01
tp6394
aa(lp6395
(I4
I0
I00
tp6396
a(I35
I0
I00
tp6397
a(I79
I4
I00
tp6398
a(I113
I0
I00
tp6399
a(I154
I0
I00
tp6400
a(I214
I0
I00
tp6401
a(I218
I0
I00
tp6402
a(I257
I0
I00
tp6403
a(I280
I0
I00
tp6404
a(I413
I0
I00
tp6405
a(I424
I0
I00
tp6406
a(I442
I0
I00
tp6407
a(I454
I0
I00
tp6408
a(I495
I4
I00
tp6409
a(I534
I0
I00
tp6410
a(I565
I0
I00
tp6411
aa(lp6412
(I4
I1
I00
tp6413
a(I224
I4
I01
tp6414
a(I466
I1
I00
tp6415
a(I553
I4
I01
tp6416
aa(lp6417
(I4
I2
I01
tp6418
a(I322
I2
I01
tp6419
aa(lp6420
(I5
I0
I00
tp6421
a(I129
I11
I00
tp6422
a(I234
I0
I00
tp6423
a(I272
I6
I00
tp6424
a(I294
I0
I00
tp6425
a(I325
I5
I00
tp6426
a(I413
I10
I00
tp6427
a(I450
I9
I00
tp6428
aa(lp6429
(I5
I1
I00
tp6430
a(I90
I3
I00
tp6431
a(I129
I12
I01
tp6432
a(I234
I1
I00
tp6433
a(I272
I7
I01
tp6434
a(I294
I1
I00
tp6435
a(I325
I6
I01
tp6436
a(I360
I3
I01
tp6437
a(I370
I1
I00
tp6438
a(I413
I11
I01
tp6439
a(I450
I10
I01
tp6440
aa(lp6441
(I5
I2
I00
tp6442
a(I163
I2
I01
tp6443
a(I234
I2
I00
tp6444
a(I258
I0
I00
tp6445
a(I285
I2
I01
tp6446
a(I294
I2
I00
tp6447
a(I479
I2
I01
tp6448
a(I490
I0
I00
tp6449
aa(lp6450
(I5
I3
I00
tp6451
a(I177
I1
I00
tp6452
a(I234
I3
I00
tp6453
a(I277
I2
I00
tp6454
a(I294
I3
I00
tp6455
a(I413
I4
I00
tp6456
a(I471
I1
I01
tp6457
aa(lp6458
(I5
I4
I00
tp6459
aa(lp6460
(I5
I5
I01
tp6461
a(I90
I0
I00
tp6462
a(I104
I2
I00
tp6463
a(I199
I0
I00
tp6464
a(I204
I2
I00
tp6465
a(I234
I4
I01
tp6466
a(I255
I2
I00
tp6467
a(I294
I5
I01
tp6468
a(I306
I2
I00
tp6469
a(I541
I2
I00
tp6470
a(I549
I4
I01
tp6471
a(I581
I2
I00
tp6472
aa(lp6473
(I6
I0
I00
tp6474
a(I377
I0
I00
tp6475
aa(lp6476
(I6
I1
I00
tp6477
a(I75
I3
I00
tp6478
a(I266
I4
I00
tp6479
a(I332
I2
I00
tp6480
a(I377
I1
I00
tp6481
a(I383
I0
I00
tp6482
a(I441
I0
I00
tp6483
aa(lp6484
(I6
I2
I00
tp6485
a(I18
I0
I00
tp6486
a(I41
I0
I00
tp6487
a(I108
I0
I00
tp6488
a(I110
I0
I00
tp6489
a(I117
I0
I00
tp6490
a(I150
I2
I00
tp6491
a(I221
I2
I00
tp6492
a(I286
I0
I00
tp6493
a(I377
I2
I00
tp6494
a(I432
I2
I00
tp6495
a(I458
I0
I00
tp6496
a(I466
I0
I00
tp6497
a(I466
I3
I00
tp6498
a(I560
I0
I00
tp6499
a(I563
I1
I00
tp6500
aa(lp6501
(I6
I3
I00
tp6502
a(I110
I1
I00
tp6503
a(I377
I3
I01
tp6504
a(I466
I4
I00
tp6505
a(I560
I1
I00
tp6506
aa(lp6507
(I6
I4
I01
tp6508
a(I98
I0
I00
tp6509
a(I99
I3
I01
tp6510
a(I110
I2
I01
tp6511
a(I139
I0
I00
tp6512
a(I171
I2
I01
tp6513
a(I212
I0
I00
tp6514
a(I226
I0
I00
tp6515
a(I240
I2
I00
tp6516
a(I327
I0
I00
tp6517
a(I410
I3
I01
tp6518
a(I466
I5
I01
tp6519
a(I522
I2
I01
tp6520
aa(lp6521
(I7
I0
I00
tp6522
a(I25
I0
I00
tp6523
a(I39
I0
I00
tp6524
a(I60
I0
I00
tp6525
a(I61
I0
I00
tp6526
a(I76
I0
I00
tp6527
a(I129
I8
I00
tp6528
a(I132
I0
I00
tp6529
a(I175
I6
I00
tp6530
a(I199
I2
I00
tp6531
a(I247
I0
I00
tp6532
a(I264
I8
I00
tp6533
a(I272
I3
I00
tp6534
a(I325
I2
I00
tp6535
a(I330
I0
I00
tp6536
a(I338
I0
I00
tp6537
a(I408
I0
I00
tp6538
a(I413
I7
I00
tp6539
a(I450
I6
I00
tp6540
a(I465
I2
I00
tp6541
a(I484
I0
I00
tp6542
a(I501
I0
I00
tp6543
a(I518
I0
I00
tp6544
a(I523
I0
I00
tp6545
a(I539
I0
I00
tp6546
a(I549
I0
I00
tp6547
aa(lp6548
(I7
I1
I00
tp6549
a(I25
I1
I00
tp6550
a(I39
I1
I00
tp6551
a(I60
I1
I00
tp6552
a(I61
I1
I00
tp6553
a(I76
I1
I00
tp6554
a(I129
I9
I00
tp6555
a(I132
I1
I00
tp6556
a(I144
I1
I00
tp6557
a(I171
I0
I00
tp6558
a(I175
I7
I00
tp6559
a(I199
I3
I00
tp6560
a(I247
I1
I00
tp6561
a(I264
I9
I00
tp6562
a(I272
I4
I00
tp6563
a(I325
I3
I00
tp6564
a(I330
I1
I00
tp6565
a(I338
I1
I00
tp6566
a(I408
I1
I00
tp6567
a(I413
I8
I00
tp6568
a(I450
I7
I00
tp6569
a(I465
I3
I00
tp6570
a(I481
I1
I00
tp6571
a(I484
I1
I00
tp6572
a(I501
I1
I00
tp6573
a(I518
I1
I00
tp6574
a(I523
I1
I00
tp6575
a(I539
I1
I00
tp6576
a(I549
I1
I00
tp6577
aa(lp6578
(I7
I2
I00
tp6579
a(I25
I2
I00
tp6580
a(I39
I2
I00
tp6581
a(I60
I2
I00
tp6582
a(I61
I2
I00
tp6583
a(I76
I2
I00
tp6584
a(I129
I10
I00
tp6585
a(I132
I2
I01
tp6586
a(I175
I8
I01
tp6587
a(I199
I4
I01
tp6588
a(I228
I5
I00
tp6589
a(I247
I2
I00
tp6590
a(I272
I5
I00
tp6591
a(I325
I4
I00
tp6592
a(I330
I2
I00
tp6593
a(I338
I2
I00
tp6594
a(I408
I2
I00
tp6595
a(I413
I9
I00
tp6596
a(I431
I0
I00
tp6597
a(I450
I8
I00
tp6598
a(I465
I4
I01
tp6599
a(I484
I2
I00
tp6600
a(I501
I2
I00
tp6601
a(I518
I2
I00
tp6602
a(I523
I2
I00
tp6603
a(I539
I2
I00
tp6604
a(I549
I2
I00
tp6605
aa(lp6606
(I7
I3
I00
tp6607
a(I163
I1
I00
tp6608
a(I222
I0
I00
tp6609
a(I285
I1
I00
tp6610
a(I479
I1
I00
tp6611
a(I489
I0
I00
tp6612
aa(lp6613
(I7
I4
I00
tp6614
a(I29
I3
I01
tp6615
a(I45
I1
I01
tp6616
a(I82
I2
I00
tp6617
a(I89
I3
I00
tp6618
a(I93
I2
I00
tp6619
a(I121
I2
I01
tp6620
a(I168
I1
I01
tp6621
a(I222
I1
I00
tp6622
a(I228
I7
I01
tp6623
a(I376
I2
I00
tp6624
a(I399
I2
I00
tp6625
a(I524
I0
I00
tp6626
aa(lp6627
(I7
I5
I00
tp6628
a(I17
I2
I01
tp6629
a(I40
I1
I01
tp6630
a(I66
I0
I00
tp6631
a(I77
I4
I01
tp6632
a(I109
I2
I01
tp6633
a(I127
I1
I00
tp6634
a(I128
I2
I01
tp6635
a(I150
I4
I01
tp6636
a(I156
I4
I01
tp6637
a(I164
I3
I01
tp6638
a(I167
I2
I01
tp6639
a(I176
I1
I00
tp6640
a(I188
I4
I01
tp6641
a(I213
I1
I00
tp6642
a(I222
I2
I01
tp6643
a(I236
I2
I00
tp6644
a(I263
I2
I01
tp6645
a(I312
I4
I01
tp6646
a(I315
I4
I01
tp6647
a(I324
I1
I00
tp6648
a(I327
I2
I01
tp6649
a(I347
I6
I01
tp6650
a(I396
I6
I01
tp6651
a(I397
I2
I01
tp6652
a(I411
I2
I01
tp6653
a(I436
I2
I01
tp6654
a(I459
I0
I00
tp6655
a(I464
I4
I01
tp6656
a(I503
I0
I00
tp6657
a(I537
I4
I00
tp6658
a(I548
I1
I00
tp6659
a(I554
I3
I01
tp6660
aa(lp6661
(I7
I6
I00
tp6662
a(I25
I3
I00
tp6663
a(I116
I1
I00
tp6664
a(I196
I2
I00
tp6665
a(I378
I2
I00
tp6666
a(I385
I1
I00
tp6667
a(I425
I3
I00
tp6668
a(I582
I2
I00
tp6669
aa(lp6670
(I7
I7
I01
tp6671
a(I25
I4
I01
tp6672
a(I116
I2
I01
tp6673
a(I196
I3
I01
tp6674
a(I378
I3
I00
tp6675
a(I385
I2
I01
tp6676
a(I582
I3
I00
tp6677
aa(lp6678
(I8
I0
I00
tp6679
a(I12
I0
I00
tp6680
a(I40
I0
I00
tp6681
a(I163
I0
I00
tp6682
aa(lp6683
(I8
I1
I00
tp6684
a(I81
I5
I00
tp6685
a(I153
I2
I00
tp6686
a(I193
I5
I00
tp6687
a(I224
I1
I00
tp6688
a(I301
I1
I00
tp6689
a(I509
I0
I00
tp6690
a(I513
I2
I00
tp6691
a(I563
I3
I00
tp6692
aa(lp6693
(I8
I2
I01
tp6694
a(I224
I2
I00
tp6695
a(I301
I2
I00
tp6696
aa(lp6697
(I9
I0
I00
tp6698
a(I175
I2
I00
tp6699
aa(lp6700
(I9
I1
I01
tp6701
a(I175
I3
I00
tp6702
aa(lp6703
(I10
I0
I00
tp6704
aa(lp6705
(I10
I1
I01
tp6706
a(I78
I2
I00
tp6707
a(I150
I1
I00
tp6708
a(I156
I1
I00
tp6709
a(I185
I1
I00
tp6710
a(I218
I1
I00
tp6711
a(I347
I3
I00
tp6712
a(I396
I3
I00
tp6713
a(I447
I1
I00
tp6714
a(I460
I1
I00
tp6715
a(I486
I2
I01
tp6716
a(I533
I1
I00
tp6717
a(I563
I0
I00
tp6718
a(I574
I2
I00
tp6719
a(I594
I1
I00
tp6720
aa(lp6721
(I11
I0
I01
tp6722
aa(lp6723
(I12
I1
I00
tp6724
a(I14
I1
I00
tp6725
a(I254
I1
I00
tp6726
a(I417
I1
I00
tp6727
a(I420
I3
I00
tp6728
a(I527
I1
I00
tp6729
a(I553
I1
I00
tp6730
a(I583
I1
I00
tp6731
aa(lp6732
(I12
I2
I01
tp6733
a(I73
I2
I01
tp6734
aa(lp6735
(I13
I0
I00
tp6736
a(I443
I0
I00
tp6737
aa(lp6738
(I13
I1
I00
tp6739
aa(lp6740
(I13
I2
I00
tp6741
a(I88
I2
I00
tp6742
a(I421
I1
I00
tp6743
a(I568
I3
I00
tp6744
aa(lp6745
(I13
I3
I01
tp6746
a(I88
I3
I01
tp6747
a(I568
I4
I01
tp6748
aa(lp6749
(I14
I0
I00
tp6750
a(I65
I0
I00
tp6751
a(I71
I2
I00
tp6752
a(I106
I1
I00
tp6753
a(I166
I1
I01
tp6754
a(I224
I0
I00
tp6755
a(I225
I1
I00
tp6756
a(I254
I0
I00
tp6757
a(I270
I5
I00
tp6758
a(I301
I0
I00
tp6759
a(I313
I0
I00
tp6760
a(I333
I0
I00
tp6761
a(I392
I2
I01
tp6762
a(I401
I0
I00
tp6763
a(I417
I0
I00
tp6764
a(I419
I0
I00
tp6765
a(I420
I2
I00
tp6766
a(I445
I0
I00
tp6767
a(I498
I5
I00
tp6768
a(I527
I0
I00
tp6769
a(I553
I0
I00
tp6770
a(I556
I2
I00
tp6771
a(I583
I0
I00
tp6772
a(I583
I3
I00
tp6773
a(I589
I0
I00
tp6774
aa(lp6775
(I14
I2
I00
tp6776
a(I24
I4
I00
tp6777
a(I33
I1
I00
tp6778
a(I52
I1
I00
tp6779
a(I81
I4
I00
tp6780
a(I86
I2
I00
tp6781
a(I150
I3
I00
tp6782
a(I186
I0
I00
tp6783
a(I193
I4
I00
tp6784
a(I254
I2
I00
tp6785
a(I313
I2
I00
tp6786
a(I327
I1
I00
tp6787
a(I353
I2
I00
tp6788
a(I412
I2
I00
tp6789
a(I417
I2
I00
tp6790
a(I420
I4
I01
tp6791
a(I445
I2
I00
tp6792
a(I513
I1
I00
tp6793
a(I527
I2
I01
tp6794
a(I553
I2
I00
tp6795
a(I556
I4
I01
tp6796
a(I583
I2
I00
tp6797
a(I596
I1
I00
tp6798
aa(lp6799
(I14
I3
I00
tp6800
a(I214
I2
I00
tp6801
aa(lp6802
(I14
I4
I01
tp6803
aa(lp6804
(I15
I0
I00
tp6805
aa(lp6806
(I15
I1
I00
tp6807
aa(lp6808
(I15
I2
I01
tp6809
aa(lp6810
(I16
I0
I00
tp6811
a(I17
I0
I00
tp6812
a(I103
I0
I00
tp6813
a(I107
I0
I00
tp6814
a(I242
I3
I01
tp6815
a(I295
I3
I01
tp6816
aa(lp6817
(I16
I1
I00
tp6818
a(I287
I0
I00
tp6819
a(I297
I1
I00
tp6820
a(I370
I3
I01
tp6821
a(I454
I2
I01
tp6822
a(I528
I1
I00
tp6823
a(I593
I3
I01
tp6824
aa(lp6825
(I16
I2
I01
tp6826
a(I35
I1
I01
tp6827
a(I214
I1
I00
tp6828
a(I413
I1
I00
tp6829
aa(lp6830
(I17
I1
I00
tp6831
aa(lp6832
(I18
I1
I00
tp6833
a(I229
I0
I00
tp6834
aa(lp6835
(I18
I2
I01
tp6836
a(I52
I0
I00
tp6837
a(I207
I4
I00
tp6838
a(I209
I5
I01
tp6839
a(I211
I3
I01
tp6840
a(I242
I2
I00
tp6841
a(I295
I2
I00
tp6842
a(I330
I4
I01
tp6843
a(I362
I2
I00
tp6844
a(I416
I4
I01
tp6845
a(I417
I4
I01
tp6846
a(I425
I2
I00
tp6847
a(I439
I0
I00
tp6848
a(I445
I4
I01
tp6849
a(I462
I4
I01
tp6850
a(I499
I4
I01
tp6851
a(I511
I0
I00
tp6852
a(I526
I1
I00
tp6853
a(I530
I2
I00
tp6854
a(I587
I2
I00
tp6855
aa(lp6856
(I19
I0
I00
tp6857
a(I30
I0
I00
tp6858
a(I73
I0
I00
tp6859
a(I146
I0
I00
tp6860
a(I262
I0
I00
tp6861
a(I474
I2
I00
tp6862
a(I519
I0
I00
tp6863
aa(lp6864
(I19
I1
I00
tp6865
a(I180
I12
I00
tp6866
a(I180
I15
I00
tp6867
a(I190
I1
I00
tp6868
aa(lp6869
(I19
I2
I01
tp6870
a(I89
I1
I00
tp6871
a(I286
I2
I01
tp6872
aa(lp6873
(I20
I0
I00
tp6874
a(I91
I2
I00
tp6875
a(I101
I0
I00
tp6876
a(I122
I2
I00
tp6877
a(I200
I2
I00
tp6878
a(I369
I0
I00
tp6879
a(I433
I0
I00
tp6880
aa(lp6881
(I20
I1
I00
tp6882
a(I101
I1
I00
tp6883
a(I122
I3
I01
tp6884
a(I200
I3
I01
tp6885
a(I356
I0
I00
tp6886
a(I369
I1
I01
tp6887
a(I374
I0
I00
tp6888
a(I433
I1
I00
tp6889
aa(lp6890
(I20
I2
I00
tp6891
a(I127
I2
I00
tp6892
a(I200
I0
I00
tp6893
a(I374
I1
I01
tp6894
a(I435
I2
I00
tp6895
a(I470
I1
I01
tp6896
aa(lp6897
(I20
I3
I01
tp6898
a(I149
I2
I01
tp6899
a(I200
I1
I00
tp6900
aa(lp6901
(I21
I0
I00
tp6902
aa(lp6903
(I21
I1
I00
tp6904
aa(lp6905
(I21
I2
I00
tp6906
a(I64
I0
I00
tp6907
a(I68
I0
I00
tp6908
a(I99
I1
I00
tp6909
a(I104
I0
I00
tp6910
a(I124
I2
I00
tp6911
a(I150
I0
I00
tp6912
a(I156
I0
I00
tp6913
a(I192
I1
I00
tp6914
a(I250
I0
I00
tp6915
a(I256
I2
I00
tp6916
a(I261
I2
I00
tp6917
a(I305
I0
I00
tp6918
a(I344
I2
I00
tp6919
a(I347
I2
I00
tp6920
a(I372
I0
I00
tp6921
a(I390
I0
I00
tp6922
a(I395
I2
I00
tp6923
a(I396
I2
I00
tp6924
a(I421
I0
I00
tp6925
a(I421
I2
I00
tp6926
a(I428
I2
I00
tp6927
a(I435
I0
I00
tp6928
a(I443
I2
I00
tp6929
a(I447
I0
I00
tp6930
a(I516
I4
I00
tp6931
a(I584
I2
I00
tp6932
a(I586
I0
I00
tp6933
aa(lp6934
(I21
I3
I01
tp6935
a(I32
I2
I00
tp6936
a(I66
I2
I01
tp6937
a(I68
I1
I00
tp6938
a(I77
I2
I00
tp6939
a(I104
I1
I00
tp6940
a(I109
I1
I00
tp6941
a(I124
I3
I00
tp6942
a(I128
I0
I00
tp6943
a(I153
I0
I00
tp6944
a(I164
I2
I00
tp6945
a(I188
I2
I00
tp6946
a(I192
I2
I01
tp6947
a(I236
I0
I00
tp6948
a(I256
I3
I01
tp6949
a(I261
I3
I01
tp6950
a(I263
I0
I00
tp6951
a(I305
I1
I00
tp6952
a(I312
I2
I00
tp6953
a(I315
I2
I00
tp6954
a(I344
I3
I01
tp6955
a(I347
I4
I00
tp6956
a(I372
I1
I01
tp6957
a(I390
I1
I00
tp6958
a(I395
I3
I00
tp6959
a(I396
I4
I00
tp6960
a(I397
I0
I00
tp6961
a(I411
I0
I00
tp6962
a(I426
I0
I00
tp6963
a(I428
I3
I01
tp6964
a(I435
I1
I00
tp6965
a(I436
I0
I00
tp6966
a(I443
I3
I01
tp6967
a(I464
I2
I00
tp6968
a(I516
I5
I01
tp6969
a(I537
I2
I00
tp6970
a(I554
I2
I00
tp6971
a(I584
I3
I00
tp6972
aa(lp6973
(I22
I0
I00
tp6974
a(I183
I0
I00
tp6975
a(I261
I1
I00
tp6976
aa(lp6977
(I22
I1
I00
tp6978
a(I183
I1
I00
tp6979
aa(lp6980
(I22
I2
I00
tp6981
a(I123
I1
I00
tp6982
a(I398
I3
I01
tp6983
aa(lp6984
(I22
I3
I01
tp6985
a(I123
I2
I01
tp6986
a(I175
I1
I00
tp6987
a(I183
I2
I00
tp6988
aa(lp6989
(I23
I0
I01
tp6990
aa(lp6991
(I24
I2
I00
tp6992
a(I44
I1
I00
tp6993
a(I48
I2
I00
tp6994
a(I76
I3
I00
tp6995
a(I81
I2
I00
tp6996
a(I129
I2
I00
tp6997
a(I207
I5
I00
tp6998
a(I227
I1
I00
tp6999
a(I275
I2
I00
tp7000
a(I298
I4
I00
tp7001
a(I348
I2
I00
tp7002
a(I363
I2
I00
tp7003
a(I405
I2
I01
tp7004
a(I413
I5
I00
tp7005
a(I450
I4
I00
tp7006
a(I467
I2
I00
tp7007
a(I469
I1
I00
tp7008
a(I476
I1
I00
tp7009
a(I566
I2
I00
tp7010
a(I590
I2
I00
tp7011
aa(lp7012
(I24
I3
I00
tp7013
a(I76
I4
I01
tp7014
a(I165
I3
I01
tp7015
a(I348
I3
I01
tp7016
a(I363
I3
I00
tp7017
a(I469
I2
I01
tp7018
a(I476
I2
I01
tp7019
a(I548
I3
I01
tp7020
a(I565
I2
I01
tp7021
a(I566
I3
I01
tp7022
a(I590
I3
I00
tp7023
aa(lp7024
(I24
I5
I01
tp7025
a(I33
I2
I00
tp7026
a(I39
I5
I00
tp7027
a(I44
I2
I01
tp7028
a(I48
I3
I01
tp7029
a(I81
I6
I00
tp7030
a(I86
I3
I01
tp7031
a(I162
I2
I00
tp7032
a(I186
I1
I01
tp7033
a(I227
I2
I01
tp7034
a(I353
I3
I01
tp7035
a(I379
I2
I00
tp7036
a(I467
I3
I01
tp7037
a(I513
I3
I00
tp7038
a(I551
I1
I00
tp7039
a(I571
I1
I00
tp7040
a(I596
I2
I01
tp7041
a(I602
I3
I01
tp7042
aa(lp7043
(I26
I0
I00
tp7044
a(I33
I6
I00
tp7045
a(I104
I4
I00
tp7046
a(I129
I0
I00
tp7047
a(I298
I2
I00
tp7048
a(I326
I5
I00
tp7049
a(I338
I3
I00
tp7050
a(I363
I4
I00
tp7051
a(I395
I6
I00
tp7052
a(I510
I2
I01
tp7053
a(I516
I2
I00
tp7054
a(I581
I4
I00
tp7055
aa(lp7056
(I26
I1
I00
tp7057
a(I33
I7
I01
tp7058
a(I104
I5
I00
tp7059
a(I129
I1
I00
tp7060
a(I298
I3
I00
tp7061
a(I326
I6
I01
tp7062
a(I338
I4
I01
tp7063
a(I363
I5
I01
tp7064
a(I395
I7
I01
tp7065
a(I516
I3
I00
tp7066
a(I581
I5
I01
tp7067
aa(lp7068
(I26
I2
I00
tp7069
aa(lp7070
(I26
I3
I01
tp7071
aa(lp7072
(I27
I0
I00
tp7073
aa(lp7074
(I27
I1
I00
tp7075
aa(lp7076
(I27
I2
I00
tp7077
aa(lp7078
(I27
I3
I01
tp7079
aa(lp7080
(I28
I0
I00
tp7081
aa(lp7082
(I28
I1
I01
tp7083
aa(lp7084
(I29
I0
I00
tp7085
a(I36
I0
I00
tp7086
a(I54
I0
I00
tp7087
a(I59
I0
I00
tp7088
a(I60
I3
I00
tp7089
a(I106
I5
I00
tp7090
a(I106
I6
I01
tp7091
a(I165
I2
I00
tp7092
a(I172
I2
I00
tp7093
a(I180
I7
I00
tp7094
a(I201
I2
I00
tp7095
a(I225
I5
I00
tp7096
a(I225
I6
I01
tp7097
a(I317
I2
I00
tp7098
a(I319
I2
I01
tp7099
a(I361
I0
I00
tp7100
a(I371
I2
I00
tp7101
a(I427
I2
I01
tp7102
a(I548
I2
I00
tp7103
a(I561
I2
I00
tp7104
a(I574
I0
I00
tp7105
aa(lp7106
(I29
I1
I00
tp7107
a(I267
I0
I00
tp7108
a(I292
I0
I00
tp7109
a(I317
I0
I00
tp7110
a(I317
I3
I01
tp7111
a(I561
I0
I00
tp7112
a(I561
I3
I01
tp7113
a(I567
I0
I00
tp7114
aa(lp7115
(I29
I2
I00
tp7116
a(I376
I3
I00
tp7117
aa(lp7118
(I30
I1
I01
tp7119
aa(lp7120
(I31
I0
I01
tp7121
aa(lp7122
(I32
I0
I00
tp7123
a(I48
I1
I00
tp7124
a(I50
I1
I00
tp7125
a(I62
I1
I00
tp7126
a(I77
I0
I00
tp7127
a(I162
I1
I00
tp7128
a(I176
I2
I00
tp7129
a(I201
I1
I00
tp7130
a(I274
I0
I00
tp7131
a(I282
I1
I00
tp7132
a(I353
I1
I00
tp7133
a(I412
I1
I00
tp7134
a(I541
I1
I00
tp7135
a(I566
I1
I00
tp7136
aa(lp7137
(I32
I1
I00
tp7138
aa(lp7139
(I32
I3
I00
tp7140
aa(lp7141
(I32
I4
I01
tp7142
a(I165
I1
I00
tp7143
aa(lp7144
(I33
I0
I00
tp7145
a(I44
I0
I00
tp7146
a(I363
I0
I00
tp7147
a(I385
I0
I00
tp7148
a(I469
I0
I00
tp7149
a(I505
I0
I00
tp7150
a(I571
I0
I00
tp7151
a(I596
I0
I00
tp7152
aa(lp7153
(I33
I3
I00
tp7154
a(I58
I0
I00
tp7155
a(I121
I0
I00
tp7156
a(I133
I0
I00
tp7157
a(I306
I4
I00
tp7158
a(I378
I4
I00
tp7159
aa(lp7160
(I33
I4
I00
tp7161
a(I133
I1
I00
tp7162
a(I306
I5
I00
tp7163
a(I378
I5
I00
tp7164
a(I531
I1
I00
tp7165
a(I582
I5
I00
tp7166
aa(lp7167
(I33
I5
I00
tp7168
a(I55
I0
I00
tp7169
a(I133
I2
I01
tp7170
a(I161
I2
I00
tp7171
a(I244
I2
I01
tp7172
a(I245
I0
I00
tp7173
a(I270
I2
I00
tp7174
a(I303
I1
I01
tp7175
a(I306
I6
I01
tp7176
a(I378
I6
I01
tp7177
a(I498
I2
I00
tp7178
a(I531
I2
I01
tp7179
a(I582
I6
I01
tp7180
aa(lp7181
(I34
I0
I00
tp7182
a(I38
I0
I00
tp7183
a(I75
I2
I00
tp7184
a(I144
I0
I00
tp7185
a(I233
I0
I00
tp7186
a(I239
I0
I00
tp7187
a(I340
I4
I00
tp7188
a(I388
I0
I00
tp7189
a(I434
I0
I00
tp7190
a(I468
I0
I00
tp7191
a(I486
I0
I00
tp7192
a(I528
I0
I00
tp7193
aa(lp7194
(I34
I1
I00
tp7195
a(I293
I1
I00
tp7196
aa(lp7197
(I34
I2
I01
tp7198
aa(lp7199
(I36
I1
I00
tp7200
a(I416
I0
I00
tp7201
aa(lp7202
(I36
I2
I01
tp7203
aa(lp7204
(I37
I2
I00
tp7205
a(I600
I4
I00
tp7206
aa(lp7207
(I37
I3
I00
tp7208
a(I143
I1
I00
tp7209
a(I506
I1
I00
tp7210
a(I600
I5
I00
tp7211
aa(lp7212
(I37
I4
I00
tp7213
a(I526
I2
I00
tp7214
aa(lp7215
(I37
I5
I01
tp7216
a(I316
I4
I01
tp7217
a(I321
I2
I01
tp7218
a(I356
I2
I01
tp7219
a(I431
I2
I01
tp7220
a(I569
I4
I01
tp7221
a(I600
I7
I01
tp7222
aa(lp7223
(I38
I1
I00
tp7224
aa(lp7225
(I38
I2
I01
tp7226
aa(lp7227
(I39
I3
I00
tp7228
a(I61
I3
I00
tp7229
a(I216
I2
I01
tp7230
aa(lp7231
(I39
I4
I00
tp7232
a(I61
I4
I01
tp7233
aa(lp7234
(I39
I6
I01
tp7235
a(I81
I7
I01
tp7236
a(I158
I2
I00
tp7237
a(I162
I3
I01
tp7238
a(I265
I1
I01
tp7239
a(I379
I3
I01
tp7240
a(I425
I5
I01
tp7241
a(I513
I4
I01
tp7242
a(I522
I0
I00
tp7243
a(I551
I2
I01
tp7244
a(I571
I2
I01
tp7245
a(I590
I0
I00
tp7246
aa(lp7247
(I41
I1
I00
tp7248
aa(lp7249
(I41
I2
I01
tp7250
a(I42
I1
I00
tp7251
a(I84
I1
I01
tp7252
a(I108
I2
I01
tp7253
a(I270
I6
I01
tp7254
a(I295
I1
I00
tp7255
a(I498
I6
I01
tp7256
aa(lp7257
(I42
I0
I00
tp7258
a(I84
I0
I00
tp7259
a(I213
I3
I00
tp7260
a(I295
I0
I00
tp7261
a(I526
I3
I01
tp7262
aa(lp7263
(I42
I3
I00
tp7264
a(I211
I1
I00
tp7265
a(I380
I3
I01
tp7266
aa(lp7267
(I42
I4
I00
tp7268
aa(lp7269
(I42
I5
I01
tp7270
a(I221
I3
I01
tp7271
aa(lp7272
(I43
I0
I00
tp7273
aa(lp7274
(I43
I1
I00
tp7275
aa(lp7276
(I43
I2
I00
tp7277
a(I423
I4
I01
tp7278
a(I497
I2
I01
tp7279
aa(lp7280
(I43
I3
I01
tp7281
aa(lp7282
(I45
I0
I00
tp7283
aa(lp7284
(I46
I0
I00
tp7285
aa(lp7286
(I46
I1
I00
tp7287
a(I99
I2
I00
tp7288
a(I394
I2
I01
tp7289
a(I405
I0
I00
tp7290
a(I418
I0
I00
tp7291
a(I530
I3
I00
tp7292
aa(lp7293
(I46
I2
I01
tp7294
aa(lp7295
(I47
I0
I00
tp7296
aa(lp7297
(I47
I1
I00
tp7298
a(I47
I4
I00
tp7299
a(I403
I5
I00
tp7300
aa(lp7301
(I47
I2
I00
tp7302
a(I47
I3
I00
tp7303
a(I95
I2
I00
tp7304
aa(lp7305
(I47
I5
I00
tp7306
aa(lp7307
(I47
I6
I00
tp7308
a(I95
I3
I00
tp7309
a(I349
I0
I00
tp7310
a(I349
I6
I00
tp7311
a(I487
I0
I00
tp7312
aa(lp7313
(I47
I7
I00
tp7314
a(I95
I7
I00
tp7315
a(I95
I13
I00
tp7316
a(I349
I4
I00
tp7317
a(I349
I7
I00
tp7318
a(I349
I9
I00
tp7319
a(I487
I1
I00
tp7320
a(I487
I4
I00
tp7321
a(I487
I11
I01
tp7322
aa(lp7323
(I47
I8
I00
tp7324
a(I403
I4
I00
tp7325
aa(lp7326
(I47
I9
I00
tp7327
a(I95
I1
I00
tp7328
a(I95
I4
I00
tp7329
a(I349
I1
I00
tp7330
a(I349
I11
I01
tp7331
a(I403
I7
I00
tp7332
a(I487
I9
I00
tp7333
aa(lp7334
(I47
I10
I01
tp7335
aa(lp7336
(I48
I0
I00
tp7337
a(I62
I0
I00
tp7338
a(I162
I0
I00
tp7339
a(I182
I0
I00
tp7340
a(I238
I1
I00
tp7341
a(I282
I0
I00
tp7342
a(I346
I2
I00
tp7343
a(I353
I0
I00
tp7344
a(I412
I0
I00
tp7345
a(I427
I1
I00
tp7346
a(I458
I1
I00
tp7347
a(I458
I3
I00
tp7348
a(I541
I0
I00
tp7349
a(I566
I0
I00
tp7350
aa(lp7351
(I49
I0
I01
tp7352
a(I134
I0
I01
tp7353
aa(lp7354
(I50
I0
I00
tp7355
a(I201
I0
I00
tp7356
a(I319
I0
I00
tp7357
a(I391
I0
I00
tp7358
a(I427
I0
I00
tp7359
aa(lp7360
(I50
I2
I00
tp7361
a(I175
I5
I00
tp7362
a(I363
I1
I00
tp7363
a(I505
I1
I00
tp7364
aa(lp7365
(I50
I3
I01
tp7366
aa(lp7367
(I51
I0
I00
tp7368
a(I67
I4
I00
tp7369
a(I269
I2
I00
tp7370
a(I326
I2
I00
tp7371
a(I512
I2
I00
tp7372
a(I538
I0
I00
tp7373
a(I543
I0
I00
tp7374
aa(lp7375
(I51
I1
I00
tp7376
a(I67
I5
I00
tp7377
a(I269
I3
I00
tp7378
a(I281
I5
I00
tp7379
a(I326
I3
I00
tp7380
a(I512
I3
I00
tp7381
a(I538
I1
I00
tp7382
a(I547
I0
I00
tp7383
aa(lp7384
(I51
I2
I00
tp7385
a(I67
I6
I01
tp7386
a(I241
I0
I00
tp7387
a(I269
I4
I00
tp7388
a(I326
I4
I00
tp7389
a(I328
I1
I00
tp7390
a(I512
I4
I00
tp7391
a(I515
I0
I00
tp7392
a(I538
I2
I01
tp7393
a(I547
I1
I01
tp7394
aa(lp7395
(I51
I5
I00
tp7396
a(I122
I0
I00
tp7397
a(I145
I0
I00
tp7398
a(I156
I2
I00
tp7399
a(I198
I0
I00
tp7400
a(I231
I0
I00
tp7401
a(I232
I3
I00
tp7402
a(I321
I0
I00
tp7403
a(I358
I0
I00
tp7404
a(I433
I2
I00
tp7405
a(I539
I3
I00
tp7406
aa(lp7407
(I51
I6
I01
tp7408
a(I232
I4
I00
tp7409
aa(lp7410
(I52
I2
I00
tp7411
a(I494
I0
I00
tp7412
a(I537
I0
I00
tp7413
aa(lp7414
(I52
I3
I00
tp7415
a(I180
I2
I00
tp7416
aa(lp7417
(I52
I4
I01
tp7418
a(I155
I3
I01
tp7419
aa(lp7420
(I53
I0
I01
tp7421
aa(lp7422
(I54
I1
I00
tp7423
a(I130
I3
I00
tp7424
a(I266
I2
I00
tp7425
a(I340
I2
I00
tp7426
a(I466
I2
I00
tp7427
a(I496
I2
I00
tp7428
a(I530
I4
I00
tp7429
a(I573
I0
I00
tp7430
aa(lp7431
(I54
I2
I01
tp7432
a(I361
I2
I01
tp7433
a(I530
I5
I01
tp7434
aa(lp7435
(I55
I1
I00
tp7436
a(I161
I3
I01
tp7437
a(I245
I1
I00
tp7438
aa(lp7439
(I56
I0
I00
tp7440
aa(lp7441
(I56
I1
I01
tp7442
aa(lp7443
(I57
I0
I00
tp7444
a(I221
I0
I00
tp7445
a(I275
I4
I00
tp7446
a(I416
I2
I00
tp7447
aa(lp7448
(I57
I1
I00
tp7449
aa(lp7450
(I57
I2
I00
tp7451
aa(lp7452
(I57
I3
I00
tp7453
aa(lp7454
(I57
I4
I01
tp7455
a(I79
I3
I00
tp7456
a(I215
I2
I00
tp7457
a(I346
I1
I00
tp7458
a(I495
I3
I00
tp7459
aa(lp7460
(I58
I1
I00
tp7461
a(I92
I1
I00
tp7462
aa(lp7463
(I58
I2
I01
tp7464
aa(lp7465
(I59
I1
I00
tp7466
aa(lp7467
(I59
I2
I01
tp7468
aa(lp7469
(I60
I4
I00
tp7470
a(I67
I2
I00
tp7471
a(I130
I1
I00
tp7472
a(I172
I3
I00
tp7473
a(I204
I4
I00
tp7474
a(I272
I1
I00
tp7475
a(I281
I2
I00
tp7476
a(I288
I4
I00
tp7477
a(I371
I3
I00
tp7478
a(I408
I3
I00
tp7479
a(I484
I3
I00
tp7480
a(I537
I6
I00
tp7481
a(I545
I4
I00
tp7482
aa(lp7483
(I60
I5
I01
tp7484
a(I67
I3
I00
tp7485
a(I106
I3
I00
tp7486
a(I130
I2
I00
tp7487
a(I204
I5
I01
tp7488
a(I272
I2
I00
tp7489
a(I371
I4
I01
tp7490
a(I408
I4
I01
tp7491
a(I518
I4
I01
tp7492
a(I537
I7
I01
tp7493
a(I545
I5
I01
tp7494
aa(lp7495
(I62
I3
I01
tp7496
a(I158
I3
I01
tp7497
a(I346
I3
I01
tp7498
a(I552
I3
I01
tp7499
a(I590
I1
I00
tp7500
aa(lp7501
(I63
I0
I00
tp7502
aa(lp7503
(I63
I1
I00
tp7504
aa(lp7505
(I63
I2
I00
tp7506
aa(lp7507
(I63
I3
I01
tp7508
aa(lp7509
(I64
I1
I00
tp7510
a(I586
I1
I00
tp7511
aa(lp7512
(I64
I2
I00
tp7513
a(I86
I0
I00
tp7514
a(I258
I1
I00
tp7515
a(I259
I1
I00
tp7516
a(I318
I1
I00
tp7517
a(I331
I2
I01
tp7518
a(I510
I1
I00
tp7519
a(I586
I2
I01
tp7520
aa(lp7521
(I64
I3
I00
tp7522
a(I71
I4
I01
tp7523
a(I197
I4
I00
tp7524
aa(lp7525
(I64
I4
I01
tp7526
a(I201
I3
I00
tp7527
a(I477
I5
I01
tp7528
a(I587
I1
I00
tp7529
aa(lp7530
(I65
I1
I00
tp7531
aa(lp7532
(I65
I2
I01
tp7533
aa(lp7534
(I66
I1
I00
tp7535
a(I77
I3
I00
tp7536
a(I153
I1
I00
tp7537
a(I188
I3
I00
tp7538
a(I236
I1
I00
tp7539
a(I312
I3
I00
tp7540
a(I315
I3
I00
tp7541
a(I347
I5
I00
tp7542
a(I396
I5
I00
tp7543
a(I397
I1
I00
tp7544
a(I464
I3
I00
tp7545
a(I537
I3
I00
tp7546
a(I562
I2
I01
tp7547
aa(lp7548
(I68
I2
I00
tp7549
aa(lp7550
(I68
I4
I01
tp7551
a(I383
I1
I01
tp7552
a(I439
I1
I00
tp7553
a(I477
I2
I00
tp7554
a(I507
I0
I00
tp7555
a(I511
I1
I00
tp7556
a(I587
I3
I01
tp7557
aa(lp7558
(I69
I0
I00
tp7559
a(I343
I0
I00
tp7560
aa(lp7561
(I69
I1
I00
tp7562
aa(lp7563
(I69
I2
I01
tp7564
aa(lp7565
(I70
I1
I00
tp7566
aa(lp7567
(I70
I2
I01
tp7568
aa(lp7569
(I71
I1
I00
tp7570
a(I386
I0
I00
tp7571
a(I398
I1
I00
tp7572
a(I409
I1
I00
tp7573
a(I423
I0
I00
tp7574
a(I423
I2
I00
tp7575
a(I497
I0
I00
tp7576
aa(lp7577
(I71
I3
I00
tp7578
aa(lp7579
(I72
I0
I01
tp7580
aa(lp7581
(I73
I1
I00
tp7582
a(I481
I0
I00
tp7583
aa(lp7584
(I74
I0
I01
tp7585
aa(lp7586
(I75
I0
I00
tp7587
a(I207
I2
I00
tp7588
a(I269
I5
I00
tp7589
a(I288
I2
I00
tp7590
a(I501
I3
I00
tp7591
a(I545
I0
I00
tp7592
aa(lp7593
(I75
I1
I00
tp7594
a(I79
I5
I00
tp7595
a(I107
I1
I00
tp7596
a(I154
I1
I00
tp7597
a(I207
I3
I00
tp7598
a(I269
I6
I01
tp7599
a(I280
I1
I00
tp7600
a(I288
I3
I00
tp7601
a(I495
I5
I00
tp7602
a(I501
I4
I01
tp7603
a(I545
I1
I00
tp7604
aa(lp7605
(I75
I4
I00
tp7606
a(I482
I2
I01
tp7607
a(I519
I1
I00
tp7608
a(I521
I2
I01
tp7609
aa(lp7610
(I77
I1
I00
tp7611
a(I139
I1
I00
tp7612
a(I176
I3
I01
tp7613
a(I188
I1
I00
tp7614
a(I274
I1
I01
tp7615
a(I345
I2
I01
tp7616
aa(lp7617
(I78
I0
I00
tp7618
aa(lp7619
(I78
I1
I00
tp7620
aa(lp7621
(I78
I3
I01
tp7622
a(I574
I3
I01
tp7623
aa(lp7624
(I79
I0
I00
tp7625
aa(lp7626
(I79
I1
I00
tp7627
a(I194
I1
I00
tp7628
a(I237
I2
I01
tp7629
a(I457
I1
I00
tp7630
a(I495
I1
I00
tp7631
aa(lp7632
(I79
I2
I00
tp7633
a(I495
I2
I00
tp7634
aa(lp7635
(I79
I6
I01
tp7636
a(I154
I2
I01
tp7637
a(I185
I2
I01
tp7638
a(I280
I2
I00
tp7639
aa(lp7640
(I80
I0
I00
tp7641
a(I90
I2
I00
tp7642
a(I318
I2
I01
tp7643
a(I331
I1
I00
tp7644
aa(lp7645
(I80
I1
I00
tp7646
a(I293
I0
I00
tp7647
a(I460
I0
I00
tp7648
aa(lp7649
(I80
I2
I01
tp7650
a(I258
I2
I01
tp7651
a(I351
I2
I01
tp7652
a(I583
I5
I01
tp7653
a(I589
I2
I01
tp7654
aa(lp7655
(I81
I3
I00
tp7656
a(I129
I3
I00
tp7657
a(I193
I3
I00
tp7658
a(I207
I6
I01
tp7659
a(I264
I3
I00
tp7660
a(I275
I3
I00
tp7661
a(I298
I5
I01
tp7662
a(I413
I6
I00
tp7663
a(I450
I5
I00
tp7664
a(I504
I2
I01
tp7665
a(I576
I2
I00
tp7666
aa(lp7667
(I82
I0
I00
tp7668
a(I100
I0
I00
tp7669
a(I219
I0
I00
tp7670
a(I297
I0
I00
tp7671
a(I352
I0
I00
tp7672
a(I376
I0
I00
tp7673
a(I425
I0
I00
tp7674
a(I477
I0
I00
tp7675
a(I555
I0
I00
tp7676
aa(lp7677
(I82
I1
I00
tp7678
a(I219
I1
I00
tp7679
a(I237
I1
I00
tp7680
a(I311
I3
I01
tp7681
a(I352
I1
I00
tp7682
a(I360
I2
I00
tp7683
a(I370
I0
I00
tp7684
aa(lp7685
(I82
I3
I01
tp7686
a(I362
I1
I00
tp7687
aa(lp7688
(I83
I0
I00
tp7689
aa(lp7690
(I83
I1
I00
tp7691
a(I328
I2
I01
tp7692
a(I392
I1
I00
tp7693
a(I594
I0
I00
tp7694
aa(lp7695
(I83
I2
I01
tp7696
a(I205
I1
I00
tp7697
a(I562
I0
I00
tp7698
aa(lp7699
(I85
I0
I01
tp7700
aa(lp7701
(I86
I1
I00
tp7702
aa(lp7703
(I87
I0
I00
tp7704
a(I180
I8
I00
tp7705
a(I246
I0
I00
tp7706
a(I310
I0
I00
tp7707
a(I461
I0
I00
tp7708
a(I491
I0
I00
tp7709
aa(lp7710
(I87
I1
I01
tp7711
a(I180
I9
I00
tp7712
aa(lp7713
(I88
I0
I00
tp7714
a(I215
I0
I00
tp7715
a(I532
I0
I00
tp7716
aa(lp7717
(I88
I1
I00
tp7718
aa(lp7719
(I89
I0
I00
tp7720
aa(lp7721
(I89
I2
I00
tp7722
aa(lp7723
(I89
I4
I01
tp7724
aa(lp7725
(I90
I1
I00
tp7726
a(I104
I3
I00
tp7727
a(I199
I1
I00
tp7728
a(I204
I3
I00
tp7729
a(I255
I3
I00
tp7730
a(I581
I3
I00
tp7731
aa(lp7732
(I90
I4
I00
tp7733
a(I587
I0
I00
tp7734
aa(lp7735
(I90
I5
I01
tp7736
aa(lp7737
(I91
I0
I00
tp7738
aa(lp7739
(I91
I1
I00
tp7740
aa(lp7741
(I91
I3
I00
tp7742
a(I169
I0
I00
tp7743
aa(lp7744
(I91
I4
I00
tp7745
aa(lp7746
(I91
I5
I01
tp7747
aa(lp7748
(I92
I0
I00
tp7749
a(I108
I1
I00
tp7750
aa(lp7751
(I92
I2
I01
tp7752
aa(lp7753
(I93
I0
I00
tp7754
a(I93
I3
I00
tp7755
a(I225
I4
I00
tp7756
a(I498
I0
I00
tp7757
aa(lp7758
(I93
I1
I00
tp7759
a(I399
I1
I00
tp7760
aa(lp7761
(I93
I4
I00
tp7762
a(I399
I4
I00
tp7763
aa(lp7764
(I93
I5
I01
tp7765
a(I399
I5
I01
tp7766
aa(lp7767
(I94
I1
I00
tp7768
a(I94
I2
I01
tp7769
aa(lp7770
(I95
I0
I00
tp7771
a(I403
I8
I01
tp7772
a(I487
I10
I00
tp7773
aa(lp7774
(I95
I5
I00
tp7775
a(I95
I14
I01
tp7776
a(I349
I2
I00
tp7777
aa(lp7778
(I95
I6
I00
tp7779
a(I95
I11
I00
tp7780
a(I349
I3
I00
tp7781
a(I403
I2
I00
tp7782
a(I487
I2
I00
tp7783
a(I487
I3
I00
tp7784
a(I487
I8
I00
tp7785
aa(lp7786
(I95
I8
I00
tp7787
a(I349
I5
I00
tp7788
aa(lp7789
(I95
I9
I00
tp7790
a(I487
I6
I00
tp7791
aa(lp7792
(I95
I10
I00
tp7793
a(I403
I1
I00
tp7794
a(I487
I7
I00
tp7795
aa(lp7796
(I95
I12
I00
tp7797
a(I349
I8
I00
tp7798
aa(lp7799
(I96
I0
I01
tp7800
aa(lp7801
(I97
I0
I01
tp7802
aa(lp7803
(I98
I1
I00
tp7804
aa(lp7805
(I98
I2
I01
tp7806
a(I406
I1
I00
tp7807
a(I560
I2
I01
tp7808
a(I563
I2
I00
tp7809
aa(lp7810
(I99
I0
I00
tp7811
aa(lp7812
(I100
I1
I00
tp7813
aa(lp7814
(I100
I2
I01
tp7815
a(I458
I2
I00
tp7816
aa(lp7817
(I101
I2
I00
tp7818
a(I507
I3
I01
tp7819
a(I578
I3
I01
tp7820
aa(lp7821
(I101
I3
I01
tp7822
aa(lp7823
(I102
I0
I00
tp7824
a(I197
I0
I00
tp7825
a(I223
I0
I00
tp7826
aa(lp7827
(I102
I1
I00
tp7828
a(I102
I2
I00
tp7829
a(I197
I1
I00
tp7830
a(I197
I2
I00
tp7831
aa(lp7832
(I102
I3
I00
tp7833
a(I197
I3
I00
tp7834
aa(lp7835
(I102
I4
I00
tp7836
aa(lp7837
(I102
I5
I00
tp7838
a(I112
I0
I00
tp7839
a(I197
I5
I00
tp7840
a(I303
I0
I00
tp7841
aa(lp7842
(I102
I6
I00
tp7843
aa(lp7844
(I102
I7
I01
tp7845
a(I197
I7
I01
tp7846
aa(lp7847
(I103
I1
I00
tp7848
aa(lp7849
(I103
I2
I01
tp7850
aa(lp7851
(I104
I6
I00
tp7852
a(I124
I4
I00
tp7853
a(I324
I2
I00
tp7854
aa(lp7855
(I104
I7
I01
tp7856
a(I124
I5
I01
tp7857
a(I248
I2
I00
tp7858
a(I415
I2
I00
tp7859
a(I602
I1
I00
tp7860
aa(lp7861
(I105
I0
I01
tp7862
aa(lp7863
(I106
I0
I00
tp7864
a(I210
I0
I00
tp7865
a(I211
I2
I00
tp7866
a(I216
I1
I00
tp7867
a(I225
I0
I00
tp7868
a(I526
I0
I00
tp7869
aa(lp7870
(I106
I2
I00
tp7871
aa(lp7872
(I106
I4
I00
tp7873
a(I244
I0
I00
tp7874
a(I270
I0
I00
tp7875
a(I285
I0
I00
tp7876
a(I345
I0
I00
tp7877
a(I375
I0
I00
tp7878
a(I399
I0
I00
tp7879
a(I399
I3
I00
tp7880
aa(lp7881
(I107
I2
I01
tp7882
aa(lp7883
(I109
I0
I00
tp7884
a(I165
I0
I00
tp7885
a(I213
I0
I00
tp7886
a(I213
I2
I00
tp7887
a(I213
I4
I00
tp7888
a(I261
I0
I00
tp7889
a(I548
I0
I00
tp7890
aa(lp7891
(I111
I0
I00
tp7892
aa(lp7893
(I111
I1
I01
tp7894
aa(lp7895
(I112
I1
I00
tp7896
aa(lp7897
(I112
I2
I01
tp7898
aa(lp7899
(I113
I1
I00
tp7900
aa(lp7901
(I113
I2
I01
tp7902
a(I391
I3
I00
tp7903
aa(lp7904
(I114
I0
I01
tp7905
aa(lp7906
(I115
I0
I01
tp7907
a(I212
I2
I01
tp7908
a(I226
I2
I01
tp7909
aa(lp7910
(I116
I0
I00
tp7911
a(I227
I0
I00
tp7912
a(I245
I2
I01
tp7913
a(I476
I0
I00
tp7914
a(I537
I5
I00
tp7915
a(I551
I0
I00
tp7916
aa(lp7917
(I117
I1
I00
tp7918
aa(lp7919
(I117
I2
I01
tp7920
a(I398
I2
I00
tp7921
aa(lp7922
(I118
I0
I00
tp7923
aa(lp7924
(I118
I1
I00
tp7925
a(I238
I2
I00
tp7926
aa(lp7927
(I118
I2
I01
tp7928
a(I238
I3
I01
tp7929
aa(lp7930
(I119
I0
I01
tp7931
aa(lp7932
(I120
I0
I00
tp7933
aa(lp7934
(I120
I1
I01
tp7935
aa(lp7936
(I121
I1
I00
tp7937
aa(lp7938
(I122
I1
I00
tp7939
a(I156
I3
I00
tp7940
a(I198
I1
I00
tp7941
a(I231
I1
I00
tp7942
a(I358
I1
I00
tp7943
a(I433
I3
I01
tp7944
aa(lp7945
(I123
I0
I00
tp7946
aa(lp7947
(I125
I0
I01
tp7948
aa(lp7949
(I126
I0
I00
tp7950
aa(lp7951
(I126
I1
I01
tp7952
aa(lp7953
(I127
I0
I00
tp7954
a(I324
I0
I00
tp7955
a(I394
I1
I00
tp7956
a(I446
I1
I00
tp7957
aa(lp7958
(I127
I3
I01
tp7959
a(I435
I3
I00
tp7960
aa(lp7961
(I128
I1
I00
tp7962
aa(lp7963
(I129
I4
I00
tp7964
a(I264
I4
I00
tp7965
a(I354
I0
I00
tp7966
a(I368
I2
I00
tp7967
a(I505
I4
I00
tp7968
aa(lp7969
(I129
I5
I00
tp7970
a(I354
I1
I01
tp7971
a(I368
I3
I00
tp7972
a(I505
I5
I01
tp7973
a(I525
I0
I00
tp7974
aa(lp7975
(I129
I6
I00
tp7976
a(I264
I6
I00
tp7977
a(I368
I4
I00
tp7978
aa(lp7979
(I129
I7
I00
tp7980
a(I213
I5
I01
tp7981
a(I368
I5
I01
tp7982
aa(lp7983
(I130
I0
I00
tp7984
a(I277
I5
I01
tp7985
aa(lp7986
(I130
I4
I01
tp7987
a(I220
I1
I00
tp7988
a(I266
I3
I00
tp7989
a(I320
I3
I00
tp7990
a(I332
I1
I00
tp7991
a(I335
I3
I00
tp7992
a(I340
I3
I00
tp7993
a(I496
I3
I00
tp7994
a(I573
I1
I00
tp7995
a(I600
I3
I00
tp7996
aa(lp7997
(I131
I0
I01
tp7998
aa(lp7999
(I135
I0
I01
tp8000
aa(lp8001
(I136
I0
I00
tp8002
a(I232
I0
I00
tp8003
a(I364
I0
I00
tp8004
a(I457
I0
I00
tp8005
a(I550
I0
I00
tp8006
aa(lp8007
(I136
I1
I00
tp8008
a(I232
I1
I00
tp8009
a(I550
I1
I00
tp8010
aa(lp8011
(I136
I2
I01
tp8012
a(I232
I2
I00
tp8013
a(I550
I2
I00
tp8014
aa(lp8015
(I137
I0
I01
tp8016
aa(lp8017
(I138
I0
I00
tp8018
aa(lp8019
(I138
I1
I01
tp8020
aa(lp8021
(I139
I2
I01
tp8022
aa(lp8023
(I140
I0
I01
tp8024
aa(lp8025
(I141
I0
I01
tp8026
aa(lp8027
(I142
I2
I00
tp8028
a(I247
I3
I00
tp8029
a(I590
I5
I00
tp8030
aa(lp8031
(I142
I3
I01
tp8032
a(I247
I4
I01
tp8033
a(I410
I1
I00
tp8034
a(I474
I4
I01
tp8035
a(I514
I4
I01
tp8036
a(I590
I6
I01
tp8037
aa(lp8038
(I143
I0
I00
tp8039
aa(lp8040
(I143
I2
I01
tp8041
a(I259
I2
I01
tp8042
aa(lp8043
(I144
I2
I01
tp8044
aa(lp8045
(I145
I1
I01
tp8046
a(I539
I4
I01
tp8047
aa(lp8048
(I146
I1
I00
tp8049
a(I474
I3
I00
tp8050
aa(lp8051
(I146
I2
I01
tp8052
a(I395
I4
I00
tp8053
aa(lp8054
(I147
I0
I00
tp8055
aa(lp8056
(I147
I1
I00
tp8057
aa(lp8058
(I147
I2
I00
tp8059
aa(lp8060
(I147
I3
I01
tp8061
aa(lp8062
(I148
I0
I00
tp8063
aa(lp8064
(I148
I1
I01
tp8065
aa(lp8066
(I149
I0
I00
tp8067
a(I177
I4
I00
tp8068
a(I342
I0
I00
tp8069
a(I394
I0
I00
tp8070
a(I506
I0
I00
tp8071
aa(lp8072
(I149
I1
I00
tp8073
aa(lp8074
(I151
I0
I01
tp8075
aa(lp8076
(I152
I0
I00
tp8077
a(I216
I0
I00
tp8078
a(I359
I1
I00
tp8079
a(I393
I0
I00
tp8080
a(I422
I1
I01
tp8081
a(I463
I1
I00
tp8082
a(I570
I1
I00
tp8083
aa(lp8084
(I152
I1
I00
tp8085
a(I359
I2
I01
tp8086
a(I393
I1
I00
tp8087
a(I463
I2
I01
tp8088
a(I471
I0
I00
tp8089
a(I480
I1
I01
tp8090
aa(lp8091
(I152
I2
I01
tp8092
aa(lp8093
(I153
I3
I01
tp8094
a(I509
I1
I01
tp8095
aa(lp8096
(I155
I0
I00
tp8097
a(I206
I7
I01
tp8098
a(I231
I2
I00
tp8099
a(I262
I1
I00
tp8100
aa(lp8101
(I155
I1
I00
tp8102
a(I198
I3
I00
tp8103
a(I231
I3
I00
tp8104
a(I262
I2
I01
tp8105
aa(lp8106
(I155
I2
I00
tp8107
aa(lp8108
(I157
I0
I00
tp8109
aa(lp8110
(I157
I1
I00
tp8111
a(I391
I4
I01
tp8112
aa(lp8113
(I157
I2
I01
tp8114
aa(lp8115
(I159
I1
I01
tp8116
aa(lp8117
(I160
I0
I00
tp8118
aa(lp8119
(I160
I1
I00
tp8120
aa(lp8121
(I160
I2
I01
tp8122
a(I180
I1
I00
tp8123
a(I249
I2
I00
tp8124
a(I370
I2
I00
tp8125
a(I481
I2
I00
tp8126
a(I580
I2
I00
tp8127
aa(lp8128
(I164
I0
I00
tp8129
a(I347
I0
I00
tp8130
a(I428
I0
I00
tp8131
a(I464
I0
I00
tp8132
aa(lp8133
(I164
I1
I00
tp8134
a(I347
I1
I00
tp8135
a(I428
I1
I00
tp8136
a(I464
I1
I00
tp8137
aa(lp8138
(I167
I0
I00
tp8139
aa(lp8140
(I167
I1
I00
tp8141
aa(lp8142
(I168
I0
I00
tp8143
aa(lp8144
(I169
I1
I01
tp8145
a(I180
I3
I00
tp8146
aa(lp8147
(I170
I0
I01
tp8148
aa(lp8149
(I171
I1
I00
tp8150
aa(lp8151
(I172
I4
I01
tp8152
a(I225
I3
I00
tp8153
a(I281
I3
I00
tp8154
aa(lp8155
(I173
I0
I00
tp8156
a(I195
I0
I00
tp8157
a(I429
I0
I00
tp8158
aa(lp8159
(I173
I1
I00
tp8160
aa(lp8161
(I173
I2
I00
tp8162
aa(lp8163
(I173
I3
I01
tp8164
aa(lp8165
(I174
I0
I01
tp8166
aa(lp8167
(I175
I0
I00
tp8168
a(I472
I1
I00
tp8169
a(I493
I2
I00
tp8170
a(I546
I3
I00
tp8171
a(I593
I0
I00
tp8172
aa(lp8173
(I175
I4
I00
tp8174
a(I272
I0
I00
tp8175
a(I513
I0
I00
tp8176
a(I590
I4
I00
tp8177
aa(lp8178
(I176
I0
I00
tp8179
aa(lp8180
(I177
I0
I00
tp8181
a(I189
I0
I00
tp8182
aa(lp8183
(I177
I2
I00
tp8184
aa(lp8185
(I177
I3
I00
tp8186
aa(lp8187
(I177
I5
I00
tp8188
aa(lp8189
(I177
I6
I00
tp8190
a(I550
I3
I00
tp8191
aa(lp8192
(I177
I7
I00
tp8193
a(I550
I4
I00
tp8194
aa(lp8195
(I177
I8
I01
tp8196
a(I550
I5
I00
tp8197
aa(lp8198
(I178
I0
I00
tp8199
a(I488
I1
I01
tp8200
aa(lp8201
(I178
I1
I01
tp8202
a(I488
I0
I00
tp8203
aa(lp8204
(I179
I0
I01
tp8205
aa(lp8206
(I180
I0
I00
tp8207
aa(lp8208
(I180
I4
I00
tp8209
a(I180
I10
I00
tp8210
a(I180
I13
I00
tp8211
aa(lp8212
(I180
I5
I00
tp8213
a(I530
I0
I00
tp8214
a(I570
I2
I00
tp8215
aa(lp8216
(I180
I6
I00
tp8217
a(I309
I1
I00
tp8218
a(I446
I3
I01
tp8219
aa(lp8220
(I180
I11
I00
tp8221
aa(lp8222
(I180
I14
I00
tp8223
aa(lp8224
(I180
I16
I01
tp8225
aa(lp8226
(I181
I0
I00
tp8227
aa(lp8228
(I181
I1
I00
tp8229
aa(lp8230
(I181
I2
I01
tp8231
aa(lp8232
(I182
I1
I00
tp8233
aa(lp8234
(I183
I3
I01
tp8235
aa(lp8236
(I184
I0
I00
tp8237
a(I500
I0
I00
tp8238
aa(lp8239
(I184
I1
I00
tp8240
a(I500
I2
I00
tp8241
aa(lp8242
(I184
I2
I01
tp8243
a(I500
I3
I01
tp8244
aa(lp8245
(I185
I0
I00
tp8246
a(I456
I0
I00
tp8247
aa(lp8248
(I187
I0
I00
tp8249
aa(lp8250
(I187
I1
I00
tp8251
a(I233
I1
I01
tp8252
a(I528
I2
I01
tp8253
aa(lp8254
(I187
I2
I01
tp8255
aa(lp8256
(I188
I0
I00
tp8257
aa(lp8258
(I189
I1
I01
tp8259
a(I359
I0
I00
tp8260
a(I362
I0
I00
tp8261
a(I422
I0
I00
tp8262
aa(lp8263
(I190
I2
I01
tp8264
aa(lp8265
(I191
I0
I01
tp8266
aa(lp8267
(I192
I0
I00
tp8268
a(I315
I1
I00
tp8269
aa(lp8270
(I193
I2
I00
tp8271
a(I264
I2
I00
tp8272
aa(lp8273
(I193
I6
I00
tp8274
a(I412
I3
I01
tp8275
aa(lp8276
(I193
I7
I01
tp8277
aa(lp8278
(I194
I0
I00
tp8279
aa(lp8280
(I194
I2
I01
tp8281
a(I450
I2
I00
tp8282
a(I594
I3
I01
tp8283
aa(lp8284
(I195
I1
I01
tp8285
aa(lp8286
(I197
I6
I00
tp8287
aa(lp8288
(I198
I2
I00
tp8289
aa(lp8290
(I198
I4
I00
tp8291
aa(lp8292
(I198
I5
I01
tp8293
a(I231
I5
I01
tp8294
a(I236
I4
I01
tp8295
a(I390
I3
I01
tp8296
a(I470
I0
I00
tp8297
a(I578
I1
I00
tp8298
aa(lp8299
(I201
I4
I00
tp8300
aa(lp8301
(I201
I5
I01
tp8302
aa(lp8303
(I202
I0
I00
tp8304
a(I482
I0
I00
tp8305
aa(lp8306
(I202
I1
I01
tp8307
aa(lp8308
(I203
I0
I01
tp8309
aa(lp8310
(I205
I0
I00
tp8311
aa(lp8312
(I205
I2
I01
tp8313
a(I441
I1
I00
tp8314
aa(lp8315
(I206
I0
I00
tp8316
aa(lp8317
(I206
I1
I00
tp8318
aa(lp8319
(I206
I2
I00
tp8320
a(I441
I3
I01
tp8321
aa(lp8322
(I206
I3
I00
tp8323
aa(lp8324
(I206
I4
I00
tp8325
aa(lp8326
(I206
I5
I00
tp8327
aa(lp8328
(I206
I6
I00
tp8329
a(I239
I2
I01
tp8330
aa(lp8331
(I208
I0
I00
tp8332
aa(lp8333
(I208
I1
I01
tp8334
aa(lp8335
(I209
I1
I00
tp8336
a(I283
I0
I00
tp8337
a(I440
I1
I00
tp8338
aa(lp8339
(I209
I2
I00
tp8340
a(I283
I1
I01
tp8341
a(I291
I1
I01
tp8342
a(I440
I2
I01
tp8343
aa(lp8344
(I209
I3
I00
tp8345
a(I280
I3
I00
tp8346
a(I462
I2
I00
tp8347
a(I499
I2
I00
tp8348
aa(lp8349
(I209
I4
I00
tp8350
a(I280
I4
I01
tp8351
a(I462
I3
I00
tp8352
a(I499
I3
I00
tp8353
aa(lp8354
(I212
I1
I00
tp8355
a(I226
I1
I00
tp8356
aa(lp8357
(I214
I3
I01
tp8358
aa(lp8359
(I215
I1
I00
tp8360
a(I391
I2
I00
tp8361
aa(lp8362
(I215
I3
I01
tp8363
aa(lp8364
(I217
I0
I00
tp8365
a(I328
I0
I00
tp8366
a(I392
I0
I00
tp8367
aa(lp8368
(I217
I1
I00
tp8369
a(I386
I1
I00
tp8370
aa(lp8371
(I217
I2
I01
tp8372
a(I568
I1
I00
tp8373
aa(lp8374
(I218
I2
I01
tp8375
aa(lp8376
(I219
I2
I00
tp8377
aa(lp8378
(I219
I3
I01
tp8379
aa(lp8380
(I220
I0
I00
tp8381
a(I481
I3
I01
tp8382
a(I492
I2
I01
tp8383
a(I558
I2
I01
tp8384
a(I580
I3
I01
tp8385
aa(lp8386
(I221
I1
I00
tp8387
a(I416
I3
I00
tp8388
aa(lp8389
(I223
I1
I00
tp8390
aa(lp8391
(I223
I2
I01
tp8392
aa(lp8393
(I224
I3
I00
tp8394
a(I553
I3
I00
tp8395
aa(lp8396
(I225
I2
I00
tp8397
aa(lp8398
(I228
I0
I00
tp8399
aa(lp8400
(I228
I1
I00
tp8401
aa(lp8402
(I228
I2
I00
tp8403
aa(lp8404
(I228
I3
I00
tp8405
aa(lp8406
(I228
I4
I00
tp8407
aa(lp8408
(I228
I6
I00
tp8409
aa(lp8410
(I229
I1
I00
tp8411
a(I329
I1
I00
tp8412
a(I508
I1
I00
tp8413
a(I535
I1
I00
tp8414
a(I562
I1
I00
tp8415
a(I570
I3
I01
tp8416
a(I583
I4
I00
tp8417
a(I589
I1
I00
tp8418
aa(lp8419
(I229
I2
I01
tp8420
aa(lp8421
(I230
I1
I01
tp8422
a(I543
I1
I00
tp8423
a(I558
I0
I00
tp8424
aa(lp8425
(I231
I4
I00
tp8426
aa(lp8427
(I232
I5
I01
tp8428
a(I492
I1
I00
tp8429
a(I558
I1
I00
tp8430
aa(lp8431
(I235
I0
I00
tp8432
aa(lp8433
(I235
I1
I00
tp8434
a(I239
I1
I00
tp8435
a(I395
I5
I00
tp8436
a(I477
I3
I00
tp8437
a(I507
I1
I00
tp8438
aa(lp8439
(I235
I2
I01
tp8440
aa(lp8441
(I236
I3
I00
tp8442
a(I390
I2
I00
tp8443
aa(lp8444
(I237
I0
I00
tp8445
a(I355
I0
I00
tp8446
a(I452
I0
I00
tp8447
aa(lp8448
(I238
I0
I00
tp8449
aa(lp8450
(I240
I0
I00
tp8451
aa(lp8452
(I240
I1
I00
tp8453
aa(lp8454
(I240
I3
I01
tp8455
aa(lp8456
(I241
I1
I01
tp8457
aa(lp8458
(I242
I1
I00
tp8459
a(I502
I1
I01
tp8460
aa(lp8461
(I243
I0
I01
tp8462
aa(lp8463
(I244
I1
I00
tp8464
a(I270
I1
I00
tp8465
a(I498
I1
I00
tp8466
aa(lp8467
(I246
I1
I01
tp8468
aa(lp8469
(I248
I0
I00
tp8470
a(I316
I0
I00
tp8471
a(I415
I0
I00
tp8472
a(I569
I0
I00
tp8473
aa(lp8474
(I248
I1
I00
tp8475
a(I415
I1
I00
tp8476
aa(lp8477
(I248
I3
I01
tp8478
aa(lp8479
(I249
I3
I01
tp8480
aa(lp8481
(I250
I1
I00
tp8482
aa(lp8483
(I250
I2
I00
tp8484
a(I312
I1
I00
tp8485
a(I344
I1
I00
tp8486
a(I396
I1
I00
tp8487
a(I554
I1
I00
tp8488
aa(lp8489
(I250
I3
I01
tp8490
aa(lp8491
(I251
I0
I01
tp8492
aa(lp8493
(I252
I0
I00
tp8494
aa(lp8495
(I252
I1
I00
tp8496
aa(lp8497
(I252
I2
I01
tp8498
aa(lp8499
(I253
I0
I00
tp8500
a(I284
I2
I00
tp8501
a(I456
I2
I01
tp8502
aa(lp8503
(I253
I1
I00
tp8504
aa(lp8505
(I253
I2
I01
tp8506
a(I423
I1
I00
tp8507
aa(lp8508
(I254
I3
I00
tp8509
a(I301
I3
I01
tp8510
a(I313
I3
I00
tp8511
aa(lp8512
(I254
I4
I01
tp8513
a(I313
I4
I01
tp8514
a(I569
I1
I00
tp8515
aa(lp8516
(I255
I4
I00
tp8517
a(I264
I0
I00
tp8518
aa(lp8519
(I255
I5
I01
tp8520
a(I264
I1
I00
tp8521
aa(lp8522
(I256
I0
I00
tp8523
aa(lp8524
(I256
I1
I00
tp8525
aa(lp8526
(I257
I1
I00
tp8527
aa(lp8528
(I257
I2
I01
tp8529
aa(lp8530
(I260
I0
I00
tp8531
a(I414
I0
I00
tp8532
aa(lp8533
(I260
I1
I01
tp8534
aa(lp8535
(I263
I1
I00
tp8536
aa(lp8537
(I264
I5
I00
tp8538
aa(lp8539
(I264
I7
I00
tp8540
aa(lp8541
(I264
I10
I00
tp8542
aa(lp8543
(I264
I11
I00
tp8544
aa(lp8545
(I264
I12
I01
tp8546
aa(lp8547
(I266
I5
I01
tp8548
a(I332
I3
I00
tp8549
aa(lp8550
(I267
I1
I00
tp8551
a(I561
I1
I00
tp8552
aa(lp8553
(I267
I2
I01
tp8554
a(I292
I2
I01
tp8555
a(I567
I2
I01
tp8556
aa(lp8557
(I268
I0
I01
tp8558
aa(lp8559
(I270
I3
I00
tp8560
aa(lp8561
(I270
I4
I00
tp8562
aa(lp8563
(I271
I0
I01
tp8564
aa(lp8565
(I273
I2
I00
tp8566
a(I375
I1
I00
tp8567
aa(lp8568
(I273
I3
I01
tp8569
a(I375
I2
I01
tp8570
aa(lp8571
(I275
I5
I01
tp8572
aa(lp8573
(I276
I0
I01
tp8574
aa(lp8575
(I277
I0
I00
tp8576
aa(lp8577
(I277
I1
I00
tp8578
aa(lp8579
(I277
I3
I00
tp8580
aa(lp8581
(I277
I4
I00
tp8582
aa(lp8583
(I278
I0
I01
tp8584
a(I577
I0
I01
tp8585
aa(lp8586
(I279
I0
I00
tp8587
a(I579
I0
I00
tp8588
aa(lp8589
(I279
I1
I01
tp8590
a(I579
I1
I00
tp8591
aa(lp8592
(I281
I4
I00
tp8593
aa(lp8594
(I281
I6
I01
tp8595
aa(lp8596
(I284
I3
I00
tp8597
aa(lp8598
(I284
I4
I01
tp8599
a(I477
I4
I00
tp8600
a(I533
I2
I00
tp8601
a(I594
I2
I00
tp8602
aa(lp8603
(I286
I1
I00
tp8604
aa(lp8605
(I287
I1
I00
tp8606
a(I309
I5
I01
tp8607
aa(lp8608
(I287
I2
I01
tp8609
aa(lp8610
(I288
I5
I01
tp8611
aa(lp8612
(I289
I0
I01
tp8613
aa(lp8614
(I290
I0
I01
tp8615
aa(lp8616
(I291
I0
I00
tp8617
aa(lp8618
(I292
I1
I00
tp8619
aa(lp8620
(I293
I2
I01
tp8621
a(I444
I1
I00
tp8622
aa(lp8623
(I294
I4
I00
tp8624
aa(lp8625
(I296
I0
I00
tp8626
a(I455
I0
I00
tp8627
a(I520
I0
I00
tp8628
aa(lp8629
(I296
I1
I00
tp8630
aa(lp8631
(I296
I2
I00
tp8632
aa(lp8633
(I296
I3
I01
tp8634
aa(lp8635
(I297
I2
I01
tp8636
aa(lp8637
(I299
I0
I01
tp8638
aa(lp8639
(I300
I0
I01
tp8640
aa(lp8641
(I302
I0
I01
tp8642
aa(lp8643
(I306
I3
I00
tp8644
a(I541
I3
I01
tp8645
aa(lp8646
(I307
I0
I01
tp8647
aa(lp8648
(I308
I0
I01
tp8649
aa(lp8650
(I309
I0
I00
tp8651
aa(lp8652
(I309
I3
I00
tp8653
aa(lp8654
(I309
I4
I00
tp8655
aa(lp8656
(I310
I1
I01
tp8657
aa(lp8658
(I311
I0
I00
tp8659
aa(lp8660
(I311
I1
I00
tp8661
aa(lp8662
(I311
I2
I00
tp8663
aa(lp8664
(I312
I0
I00
tp8665
a(I344
I0
I00
tp8666
a(I396
I0
I00
tp8667
a(I554
I0
I00
tp8668
aa(lp8669
(I313
I1
I00
tp8670
a(I445
I1
I00
tp8671
a(I556
I3
I00
tp8672
aa(lp8673
(I314
I0
I01
tp8674
aa(lp8675
(I315
I0
I00
tp8676
aa(lp8677
(I316
I1
I00
tp8678
aa(lp8679
(I316
I2
I00
tp8680
a(I569
I2
I00
tp8681
aa(lp8682
(I316
I3
I00
tp8683
a(I569
I3
I00
tp8684
aa(lp8685
(I317
I1
I00
tp8686
a(I567
I1
I00
tp8687
aa(lp8688
(I319
I1
I00
tp8689
aa(lp8690
(I320
I2
I00
tp8691
a(I335
I2
I00
tp8692
a(I361
I1
I00
tp8693
aa(lp8694
(I320
I4
I01
tp8695
aa(lp8696
(I321
I1
I00
tp8697
aa(lp8698
(I322
I0
I00
tp8699
aa(lp8700
(I322
I1
I00
tp8701
aa(lp8702
(I323
I1
I01
tp8703
a(I373
I1
I01
tp8704
a(I579
I3
I01
tp8705
aa(lp8706
(I329
I0
I00
tp8707
aa(lp8708
(I329
I2
I00
tp8709
aa(lp8710
(I330
I3
I00
tp8711
aa(lp8712
(I331
I0
I00
tp8713
aa(lp8714
(I332
I0
I00
tp8715
a(I600
I2
I00
tp8716
aa(lp8717
(I333
I1
I00
tp8718
aa(lp8719
(I333
I2
I01
tp8720
a(I452
I1
I01
tp8721
aa(lp8722
(I334
I0
I01
tp8723
aa(lp8724
(I335
I4
I00
tp8725
aa(lp8726
(I335
I5
I01
tp8727
aa(lp8728
(I336
I0
I01
tp8729
aa(lp8730
(I337
I0
I01
tp8731
aa(lp8732
(I339
I0
I01
tp8733
aa(lp8734
(I340
I5
I01
tp8735
a(I388
I1
I01
tp8736
aa(lp8737
(I341
I0
I01
tp8738
aa(lp8739
(I342
I1
I00
tp8740
a(I520
I1
I00
tp8741
aa(lp8742
(I342
I2
I01
tp8743
aa(lp8744
(I343
I1
I01
tp8745
a(I468
I2
I01
tp8746
aa(lp8747
(I345
I1
I00
tp8748
a(I419
I4
I01
tp8749
a(I420
I1
I00
tp8750
a(I459
I1
I01
tp8751
a(I512
I6
I01
tp8752
a(I525
I1
I00
tp8753
a(I556
I1
I00
tp8754
aa(lp8755
(I346
I0
I00
tp8756
aa(lp8757
(I349
I10
I00
tp8758
aa(lp8759
(I350
I0
I01
tp8760
aa(lp8761
(I351
I0
I00
tp8762
aa(lp8763
(I351
I1
I00
tp8764
aa(lp8765
(I352
I2
I00
tp8766
aa(lp8767
(I352
I3
I00
tp8768
aa(lp8769
(I352
I5
I01
tp8770
aa(lp8771
(I355
I1
I00
tp8772
aa(lp8773
(I355
I2
I01
tp8774
aa(lp8775
(I356
I1
I00
tp8776
aa(lp8777
(I357
I0
I00
tp8778
aa(lp8779
(I357
I2
I00
tp8780
aa(lp8781
(I357
I3
I01
tp8782
aa(lp8783
(I358
I2
I00
tp8784
a(I511
I2
I00
tp8785
aa(lp8786
(I358
I3
I01
tp8787
a(I511
I3
I01
tp8788
aa(lp8789
(I360
I0
I00
tp8790
aa(lp8791
(I360
I1
I00
tp8792
aa(lp8793
(I362
I3
I01
tp8794
aa(lp8795
(I364
I1
I00
tp8796
a(I376
I4
I00
tp8797
aa(lp8798
(I364
I2
I01
tp8799
aa(lp8800
(I365
I3
I01
tp8801
a(I584
I5
I01
tp8802
aa(lp8803
(I366
I0
I01
tp8804
aa(lp8805
(I367
I0
I01
tp8806
aa(lp8807
(I373
I0
I00
tp8808
a(I579
I2
I00
tp8809
aa(lp8810
(I376
I1
I00
tp8811
a(I463
I0
I00
tp8812
a(I570
I0
I00
tp8813
a(I595
I1
I01
tp8814
aa(lp8815
(I376
I5
I01
tp8816
aa(lp8817
(I381
I0
I01
tp8818
aa(lp8819
(I382
I0
I01
tp8820
aa(lp8821
(I384
I0
I00
tp8822
aa(lp8823
(I384
I1
I01
tp8824
a(I599
I0
I00
tp8825
aa(lp8826
(I386
I2
I01
tp8827
aa(lp8828
(I387
I0
I00
tp8829
a(I413
I2
I00
tp8830
a(I450
I0
I00
tp8831
aa(lp8832
(I387
I1
I01
tp8833
a(I413
I3
I00
tp8834
a(I450
I1
I00
tp8835
a(I491
I1
I01
tp8836
aa(lp8837
(I389
I0
I01
tp8838
aa(lp8839
(I391
I1
I00
tp8840
a(I444
I0
I00
tp8841
aa(lp8842
(I393
I2
I01
tp8843
a(I529
I1
I01
tp8844
aa(lp8845
(I400
I0
I01
tp8846
aa(lp8847
(I401
I1
I00
tp8848
a(I419
I1
I00
tp8849
aa(lp8850
(I401
I2
I01
tp8851
a(I419
I2
I00
tp8852
aa(lp8853
(I402
I0
I01
tp8854
aa(lp8855
(I403
I0
I00
tp8856
aa(lp8857
(I403
I3
I00
tp8858
aa(lp8859
(I403
I6
I00
tp8860
a(I487
I5
I00
tp8861
aa(lp8862
(I404
I0
I01
tp8863
aa(lp8864
(I405
I1
I00
tp8865
a(I572
I0
I00
tp8866
aa(lp8867
(I406
I0
I00
tp8868
aa(lp8869
(I406
I3
I01
tp8870
aa(lp8871
(I407
I0
I01
tp8872
aa(lp8873
(I409
I2
I00
tp8874
aa(lp8875
(I409
I3
I01
tp8876
a(I415
I3
I01
tp8877
aa(lp8878
(I410
I0
I00
tp8879
aa(lp8880
(I410
I2
I00
tp8881
a(I595
I0
I00
tp8882
aa(lp8883
(I411
I1
I00
tp8884
aa(lp8885
(I414
I1
I00
tp8886
aa(lp8887
(I414
I2
I01
tp8888
aa(lp8889
(I416
I1
I00
tp8890
aa(lp8891
(I417
I3
I00
tp8892
a(I445
I3
I00
tp8893
aa(lp8894
(I418
I1
I00
tp8895
aa(lp8896
(I418
I2
I01
tp8897
aa(lp8898
(I419
I3
I00
tp8899
a(I420
I0
I00
tp8900
a(I512
I5
I00
tp8901
aa(lp8902
(I421
I3
I01
tp8903
aa(lp8904
(I423
I3
I00
tp8905
a(I482
I1
I00
tp8906
a(I497
I1
I00
tp8907
a(I585
I1
I00
tp8908
aa(lp8909
(I424
I1
I01
tp8910
aa(lp8911
(I425
I1
I00
tp8912
a(I477
I1
I00
tp8913
aa(lp8914
(I425
I4
I00
tp8915
a(I550
I7
I01
tp8916
aa(lp8917
(I426
I1
I01
tp8918
aa(lp8919
(I429
I1
I01
tp8920
aa(lp8921
(I430
I0
I01
tp8922
aa(lp8923
(I431
I1
I00
tp8924
aa(lp8925
(I434
I1
I01
tp8926
aa(lp8927
(I436
I1
I00
tp8928
aa(lp8929
(I437
I0
I00
tp8930
aa(lp8931
(I437
I1
I01
tp8932
aa(lp8933
(I438
I0
I00
tp8934
aa(lp8935
(I438
I1
I00
tp8936
a(I592
I1
I00
tp8937
aa(lp8938
(I439
I2
I01
tp8939
aa(lp8940
(I441
I2
I00
tp8941
aa(lp8942
(I442
I1
I00
tp8943
aa(lp8944
(I442
I2
I01
tp8945
aa(lp8946
(I443
I1
I00
tp8947
aa(lp8948
(I444
I2
I00
tp8949
aa(lp8950
(I444
I3
I01
tp8951
a(I525
I2
I01
tp8952
aa(lp8953
(I446
I0
I00
tp8954
aa(lp8955
(I446
I2
I00
tp8956
aa(lp8957
(I447
I3
I01
tp8958
aa(lp8959
(I448
I1
I00
tp8960
aa(lp8961
(I448
I2
I01
tp8962
aa(lp8963
(I449
I0
I00
tp8964
aa(lp8965
(I449
I1
I00
tp8966
a(I486
I1
I00
tp8967
aa(lp8968
(I449
I2
I01
tp8969
aa(lp8970
(I450
I3
I00
tp8971
aa(lp8972
(I451
I0
I01
tp8973
aa(lp8974
(I453
I0
I00
tp8975
aa(lp8976
(I453
I1
I00
tp8977
aa(lp8978
(I453
I2
I01
tp8979
aa(lp8980
(I454
I1
I00
tp8981
aa(lp8982
(I455
I1
I01
tp8983
aa(lp8984
(I456
I1
I00
tp8985
aa(lp8986
(I457
I2
I01
tp8987
aa(lp8988
(I458
I4
I01
tp8989
aa(lp8990
(I460
I2
I01
tp8991
aa(lp8992
(I461
I1
I01
tp8993
aa(lp8994
(I468
I1
I00
tp8995
aa(lp8996
(I473
I0
I00
tp8997
aa(lp8998
(I473
I1
I01
tp8999
aa(lp9000
(I475
I0
I01
tp9001
aa(lp9002
(I478
I0
I01
tp9003
aa(lp9004
(I480
I0
I00
tp9005
aa(lp9006
(I483
I0
I00
tp9007
aa(lp9008
(I483
I1
I01
tp9009
aa(lp9010
(I484
I4
I01
tp9011
aa(lp9012
(I485
I0
I01
tp9013
aa(lp9014
(I489
I1
I00
tp9015
aa(lp9016
(I489
I2
I01
tp9017
aa(lp9018
(I490
I1
I01
tp9019
aa(lp9020
(I493
I0
I00
tp9021
aa(lp9022
(I493
I1
I00
tp9023
aa(lp9024
(I493
I3
I01
tp9025
aa(lp9026
(I494
I1
I00
tp9027
aa(lp9028
(I494
I2
I01
tp9029
aa(lp9030
(I495
I0
I00
tp9031
aa(lp9032
(I495
I6
I01
tp9033
aa(lp9034
(I496
I4
I01
tp9035
aa(lp9036
(I498
I3
I00
tp9037
aa(lp9038
(I498
I4
I00
tp9039
aa(lp9040
(I499
I0
I00
tp9041
aa(lp9042
(I499
I1
I00
tp9043
aa(lp9044
(I500
I1
I00
tp9045
aa(lp9046
(I503
I1
I01
tp9047
aa(lp9048
(I504
I0
I00
tp9049
aa(lp9050
(I504
I1
I00
tp9051
a(I505
I3
I00
tp9052
aa(lp9053
(I505
I2
I00
tp9054
aa(lp9055
(I506
I2
I01
tp9056
aa(lp9057
(I507
I2
I00
tp9058
aa(lp9059
(I508
I0
I00
tp9060
aa(lp9061
(I508
I2
I01
tp9062
a(I535
I2
I01
tp9063
aa(lp9064
(I510
I0
I00
tp9065
aa(lp9066
(I514
I2
I00
tp9067
aa(lp9068
(I514
I3
I00
tp9069
aa(lp9070
(I515
I1
I01
tp9071
aa(lp9072
(I517
I0
I01
tp9073
aa(lp9074
(I518
I3
I00
tp9075
aa(lp9076
(I519
I2
I01
tp9077
a(I555
I1
I00
tp9078
aa(lp9079
(I520
I2
I01
tp9080
aa(lp9081
(I521
I0
I00
tp9082
aa(lp9083
(I521
I1
I00
tp9084
aa(lp9085
(I522
I1
I00
tp9086
aa(lp9087
(I524
I1
I01
tp9088
aa(lp9089
(I529
I0
I00
tp9090
aa(lp9091
(I530
I1
I00
tp9092
aa(lp9093
(I531
I0
I00
tp9094
a(I582
I4
I00
tp9095
aa(lp9096
(I532
I1
I00
tp9097
aa(lp9098
(I532
I2
I01
tp9099
aa(lp9100
(I533
I0
I00
tp9101
aa(lp9102
(I533
I3
I01
tp9103
aa(lp9104
(I534
I1
I01
tp9105
aa(lp9106
(I536
I0
I01
tp9107
aa(lp9108
(I537
I1
I00
tp9109
aa(lp9110
(I540
I0
I01
tp9111
aa(lp9112
(I542
I0
I01
tp9113
aa(lp9114
(I543
I2
I01
tp9115
aa(lp9116
(I549
I3
I00
tp9117
aa(lp9118
(I555
I2
I01
tp9119
aa(lp9120
(I556
I0
I00
tp9121
aa(lp9122
(I557
I0
I01
tp9123
aa(lp9124
(I559
I0
I01
tp9125
aa(lp9126
(I563
I4
I01
tp9127
aa(lp9128
(I564
I0
I01
tp9129
aa(lp9130
(I565
I1
I00
tp9131
aa(lp9132
(I568
I0
I00
tp9133
aa(lp9134
(I568
I2
I00
tp9135
aa(lp9136
(I572
I1
I01
tp9137
aa(lp9138
(I574
I1
I00
tp9139
aa(lp9140
(I575
I0
I01
tp9141
aa(lp9142
(I576
I0
I00
tp9143
aa(lp9144
(I576
I1
I00
tp9145
aa(lp9146
(I576
I3
I01
tp9147
aa(lp9148
(I578
I0
I00
tp9149
aa(lp9150
(I584
I0
I00
tp9151
aa(lp9152
(I584
I1
I00
tp9153
aa(lp9154
(I584
I4
I00
tp9155
aa(lp9156
(I585
I0
I00
tp9157
aa(lp9158
(I585
I2
I01
tp9159
aa(lp9160
(I588
I0
I01
tp9161
aa(lp9162
(I591
I0
I01
tp9163
aa(lp9164
(I592
I0
I00
tp9165
aa(lp9166
(I593
I1
I00
tp9167
aa(lp9168
(I593
I2
I00
tp9169
aa(lp9170
(I597
I0
I00
tp9171
aa(lp9172
(I597
I1
I01
tp9173
aa(lp9174
(I598
I0
I01
tp9175
aa(lp9176
(I599
I1
I00
tp9177
aa(lp9178
(I599
I2
I01
tp9179
aa(lp9180
(I600
I6
I00
tp9181
aa(lp9182
(I601
I0
I01
tp9183
aa(lp9184
(I602
I0
I00
tp9185
aa(lp9186
(I602
I2
I00
tp9187
aas.